* = $8000
$8000:  4C 69 80   jmp label_8069
$8003:!byte $4C,$EA,$9A,$4C,$B0,$84,$4C,$43
$800B:!byte $84,$4C,$4E,$9A,$4C,$9B,$8C,$00
$8013: 
$8013: label_8013
$8013:  AD 12 80   lda $8012
$8016:  29 07      and #$07
$8018:  AA         tax
$8019:  BD 31 80   lda $8031, x
$801C:  48         pha
$801D:  AD 12 80   lda $8012
$8020:  4A         lsr
$8021:  4A         lsr
$8022:  4A         lsr
$8023:  8D 2D 80   sta $802d
$8026:  A4 0A      ldy $0a
$8028:  88         dey
$8029:  98         tya
$802A:  0A         asl
$802B:  0A         asl
$802C:  09 00      ora #$00
$802E:  A8         tay
$802F:  68         pla
$8030:  60         rts
$8031:!byte $01,$02,$04,$08,$10,$20,$40,$80
$8039: 
$8039: label_8039
$8039:  AE 12 80   ldx $8012
$803C:  BD 00 4A   lda $4a00, x
$803F:  C9 0E      cmp #$0e
$8041:  F0 04      beq label_8047
$8043:  C9 40      cmp #$40
$8045:  90 07      bcc label_804e
$8047: 
$8047: label_8047
$8047:  20 13 80   jsr label_8013
$804A:  39 40 13   and $1340, y
$804D:  60         rts
$804E: 
$804E: label_804e
$804E:  A9 00      lda #$00
$8050:  60         rts
$8051: 
$8051: label_8051
$8051:  AE 12 80   ldx $8012
$8054:  BD 00 4A   lda $4a00, x
$8057:  30 0F      bmi label_8068
$8059:  29 FC      and #$fc
$805B:  C9 70      cmp #$70
$805D:  F0 09      beq label_8068
$805F:  20 13 80   jsr label_8013
$8062:  19 40 13   ora $1340, y
$8065:  99 40 13   sta $1340, y
$8068: 
$8068: label_8068
$8068:  60         rts
$8069: 
$8069: label_8069
$8069:  A9 00      lda #$00
$806B:  85 7A      sta $7a
$806D:  85 2B      sta $2b
$806F:  8D 96 9A   sta $9a96
$8072:  8D 5F 8D   sta $8d5f
$8075:  8D 60 8D   sta $8d60
$8078:  38         sec
$8079:  66 71      ror $71
$807B:  20 2D 4C   jsr $4c2d
$807E:  20 2A 4C   jsr $4c2a
$8081:  20 99 4C   jsr $4c99
$8084:  20 51 4C   jsr $4c51
$8087:  20 86 99   jsr label_9986
$808A:  20 D1 98   jsr label_98d1
$808D:  A5 88      lda $88
$808F:  D0 0C      bne label_809d
$8091:  20 5D 99   jsr label_995d
$8094:  20 9D 99   jsr label_999d
$8097:  20 EA 9A   jsr label_9aea
$809A:  4C A3 80   jmp label_80a3
$809D: 
$809D: label_809d
$809D:  20 9D 99   jsr label_999d
$80A0:  20 13 9B   jsr label_9b13
$80A3: 
$80A3: label_80a3
$80A3:  A9 1F      lda #$1f
$80A5:  8D 12 80   sta $8012
$80A8: 
$80A8: label_80a8
$80A8:  20 39 80   jsr label_8039
$80AB:  F0 06      beq label_80b3
$80AD:  AE 12 80   ldx $8012
$80B0:  20 60 81   jsr label_8160
$80B3: 
$80B3: label_80b3
$80B3:  CE 12 80   dec $8012
$80B6:  AD 12 80   lda $8012
$80B9:  10 ED      bpl label_80a8
$80BB:  A5 0A      lda $0a
$80BD:  C9 1D      cmp #$1d
$80BF:  D0 0A      bne label_80cb
$80C1:  AD FA 11   lda $11fa
$80C4:  F0 05      beq label_80cb
$80C6:  A2 09      ldx #$09
$80C8:  20 60 81   jsr label_8160
$80CB: 
$80CB: label_80cb
$80CB:  20 30 4C   jsr $4c30
$80CE:  20 1E 6C   jsr $6c1e
$80D1:  30 24      bmi label_80f7
$80D3:  20 1B 4C   jsr $4c1b
$80D6:  A5 0A      lda $0a
$80D8:  C9 1D      cmp #$1d
$80DA:  D0 11      bne label_80ed
$80DC:  A2 02      ldx #$02
$80DE: 
$80DE: label_80de
$80DE:  8A         txa
$80DF:  48         pha
$80E0:  BC 89 11   ldy $1189, x
$80E3:  30 03      bmi label_80e8
$80E5:  20 02 81   jsr label_8102
$80E8: 
$80E8: label_80e8
$80E8:  68         pla
$80E9:  AA         tax
$80EA:  CA         dex
$80EB:  10 F1      bpl label_80de
$80ED: 
$80ED: label_80ed
$80ED:  A6 32      ldx $32
$80EF:  30 06      bmi label_80f7
$80F1:  20 02 81   jsr label_8102
$80F4:  20 00 9A   jsr label_9a00
$80F7: 
$80F7: label_80f7
$80F7:  A4 0A      ldy $0a
$80F9:  BE 89 81   ldx $8189, y
$80FC:  20 40 6C   jsr $6c40
$80FF:  4C D8 81   jmp label_81d8
$8102: 
$8102: label_8102
$8102:  20 00 4C   jsr $4c00
$8105:  8D C1 EE   sta $eec1
$8108:  A0 E1      ldy #$e1
$810A:  E9 F2      sbc #$f2
$810C:  A0 EF      ldy #$ef
$810E:  E6 8D      inc $8d
$8110:  00         brk
$8111:  BC 5D 81   ldy $815d, x
$8114: 
$8114: label_8114
$8114:  B9 45 81   lda $8145, y
$8117:  48         pha
$8118:  09 80      ora #$80
$811A:  20 03 4C   jsr $4c03
$811D:  C8         iny
$811E:  68         pla
$811F:  30 F3      bmi label_8114
$8121:  20 00 4C   jsr $4c00
$8124:  A0 E4      ldy #$e4
$8126:  EF F4 E8   isc $e8f4
$8129:  8D F3 F5   sta $f5f3
$812C:  F2         jam
$812D:  F2         jam
$812E:  EF F5 EE   isc $eef5
$8131:  E4 A0      cpx $a0
$8133:  F4 E8      nop $e8, x
$8135:  E5 E5      sbc $e5
$8137:  AE AE AE   ldx $aeae
$813A:  8D 00 A2   sta $a200
$813D:  56 A0      lsr $a0, x
$813F:  78         sei
$8140:  A9 02      lda #$02
$8142:  4C 4B 4C   jmp $4c4b
$8145:!byte $E6,$E1,$EC,$F3,$E5,$E8,$EF,$EF
$814D:!byte $64,$E8,$E1,$F4,$F2,$E5,$64,$E3
$8155:!byte $EF,$F7,$E1,$F2,$E4,$E9,$E3,$65
$815D:!byte $00,$09,$0F
$8160: 
$8160: label_8160
$8160:  A9 00      lda #$00
$8162:  9D 00 4A   sta $4a00, x
$8165:  9D 20 4A   sta $4a20, x
$8168:  9D 00 42   sta $4200, x
$816B:  9D C0 4A   sta $4ac0, x
$816E:  9D E0 4A   sta $4ae0, x
$8171:  9D 40 4A   sta $4a40, x
$8174:  9D 60 4A   sta $4a60, x
$8177:  9D 80 4A   sta $4a80, x
$817A:  9D A0 4A   sta $4aa0, x
$817D:  9D 40 4B   sta $4b40, x
$8180:  9D A0 4B   sta $4ba0, x
$8183:  9D 00 4B   sta $4b00, x
$8186:  9D 20 4B   sta $4b20, x
$8189:  60         rts
$818A:!byte $09,$09,$09,$09,$09,$09,$09,$09
$8192:!byte $0D,$0D,$0D,$0D,$06,$06,$06,$06
$819A:!byte $08,$0C,$06,$06,$06,$06,$06,$06
$81A2:!byte $0D,$0D,$0D,$0D,$0D,$07,$07,$07
$81AA:!byte $8E,$B4,$81,$8C,$B6,$81,$20,$21
$81B2:!byte $4C,$A2,$00,$A0,$00,$60,$01,$03
$81BA:!byte $05,$08,$09,$0B,$0D,$0F,$11,$14
$81C2:!byte $17,$1A,$1D,$1E,$1F,$20,$22,$27
$81CA:!byte $2B,$2C,$2D,$2E,$2F,$30,$31,$33
$81D2:!byte $35,$36,$37,$38,$3B,$3F
$81D8: 
$81D8: label_81d8
$81D8:  20 1E 6C   jsr $6c1e
$81DB:  F0 42      beq label_821f
$81DD:  30 13      bmi label_81f2
$81DF:  20 00 4C   jsr $4c00
$81E2:  8D 1E DA   sta $da1e
$81E5:  FA         nop
$81E6:  FA         nop
$81E7:  FA         nop
$81E8:  FA         nop
$81E9:  FA         nop
$81EA:  AE AE AE   ldx $aeae
$81ED:  8D 00 4C   sta $4c00
$81F0:  26 94      rol $94
$81F2: 
$81F2: label_81f2
$81F2:  A2 00      ldx #$00
$81F4:  20 40 6C   jsr $6c40
$81F7:  A9 1E      lda #$1e
$81F9:  85 0C      sta $0c
$81FB:  20 1B 4C   jsr $4c1b
$81FE:  A9 05      lda #$05
$8200:  20 09 6C   jsr $6c09
$8203:  A9 1C      lda #$1c
$8205:  85 0C      sta $0c
$8207:  20 30 4C   jsr $4c30
$820A: 
$820A: label_820a
$820A:  A2 00      ldx #$00
$820C:  20 24 6C   jsr $6c24
$820F:  44 45      nop $45
$8211:  41 54      eor ( $54, x)
$8213:  48         pha
$8214:  00         brk
$8215:  B0 F3      bcs label_820a
$8217:  A2 05      ldx #$05
$8219:  20 40 6C   jsr $6c40
$821C:  4C 00 A7   jmp $a700
$821F: 
$821F: label_821f
$821F:  AD 60 8D   lda $8d60
$8222:  30 06      bmi label_822a
$8224:  38         sec
$8225: 
$8225: label_8225
$8225:  6E 60 8D   ror $8d60
$8228:  30 1D      bmi label_8247
$822A: 
$822A: label_822a
$822A:  20 1B 6C   jsr $6c1b
$822D:  90 18      bcc label_8247
$822F:  A9 04      lda #$04
$8231:  20 09 6C   jsr $6c09
$8234:  46 7A      lsr $7a
$8236: 
$8236: label_8236
$8236:  A2 00      ldx #$00
$8238:  20 24 6C   jsr $6c24
$823B:  53 48      sre ( $48 ), y
$823D:  52         jam
$823E:  49 4E      eor #$4e
$8240:  45 00      eor $00
$8242:  B0 F2      bcs label_8236
$8244:  20 00 A7   jsr $a700
$8247: 
$8247: label_8247
$8247:  A5 0C      lda $0c
$8249:  29 F0      and #$f0
$824B:  C9 20      cmp #$20
$824D:  D0 02      bne label_8251
$824F:  46 33      lsr $33
$8251: 
$8251: label_8251
$8251:  20 1B 4C   jsr $4c1b
$8254:  20 33 98   jsr label_9833
$8257:  20 00 4C   jsr $4c00
$825A:  8D 1E 00   sta $001e
$825D:  A9 00      lda #$00
$825F:  85 A7      sta $a7
$8261:  85 A8      sta $a8

$8263: label_8263
$8263:  20 15 4C   jsr $4c15
$8266:  AA         tax
$8267:  A4 2B      ldy $2b
$8269:  F0 24      beq label_828f
$826B:  20 27 4C   jsr $4c27
$826E:  4A         lsr
$826F:  8A         txa
$8270:  B0 1D      bcs label_828f
$8272:  20 B0 84   jsr label_84b0
$8275:  C6 2B      dec $2b
$8277:  20 00 4C   jsr $4c00
$827A:  C8         
$827B:  E9 E3      
$827D:  A1 8D      
$827F:  00         
$8280:  20 27 4C   jsr $4c27
$8283:  29 03      and #$03
$8285:  AA         tax
$8286:  BD 8B 82   lda $828b, x
$8289:  D0 04      bne label_828f
$828B:  C0 BA      cpy #$ba
$828D:  BB AF 8D   las $8daf, y
$8290:  5E 8D C9   lsr $c98d, x
$8293:  B0 90      bcs label_8225
$8295:  07 C9      slo $c9
$8297:  BA         tsx
$8298:  B0 03      bcs label_829d
$829A:  4C 22 83   jmp label_8322
$829D: 
$829D: label_829d
$829D:  A2 00      ldx #$00
$829F:  8E 5F 8D   stx $8d5f
$82A2:  C9 C1      cmp #$c1
$82A4:  90 28      bcc label_82ce
$82A6:  C9 DB      cmp #$db
$82A8:  B0 24      bcs label_82ce
$82AA:  E6 80      inc $80
$82AC:  AA         tax
$82AD:  BD 47 82   lda label_8247, x
$82B0:  48         pha
$82B1:  BD 2D 82   lda $822d, x
$82B4:  48         pha
$82B5:  60         rts
$82B6:!byte $FF,$13,$16,$AF,$BB,$BA,$C0,$A0
$82BE:!byte $23,$59,$53,$36,$8B,$62,$0B,$FF
$82C6:!byte $84,$87,$87,$85,$85,$85,$85,$84
$82CE: 
$82CE: label_82ce
$82CE:  A2 07      ldx #$07
$82D0: 
$82D0: label_82d0
$82D0:  DD B6 82   cmp $82b6, x
$82D3:  D0 09      bne label_82de
$82D5:  BD C6 82   lda $82c6, x
$82D8:  48         pha
$82D9:  BD BE 82   lda $82be, x
$82DC:  48         pha
$82DD:  60         rts
$82DE: 
$82DE: label_82de
$82DE:  CA         dex
$82DF:  10 EF      bpl label_82d0
$82E1: 

$82E1: label_82e1
$82E1:  20 00 4C   jsr $4c00
$82E4:  D7 E8      dcp $e8, x
$82E6:  E1 F4      sbc ( $f4, x)
$82E8:  BF 8D 00   lax $008d, y
$82EB:  4C 26 94   jmp label_9426
$82EE:!byte $84,$74,$43,$23,$5A,$6D,$CB,$43
$82F6:!byte $50,$6C,$C6,$4E,$C9,$DF,$24,$11
$82FE:!byte $2E,$FA,$0C,$25,$3B,$4D,$23,$85
$8306:!byte $58,$AD,$87,$88,$89,$94,$89,$89
$830E:!byte $8A,$8B,$8C,$8D,$8E,$8F,$8F,$8F
$8316:!byte $90,$91,$91,$91,$92,$92,$92,$92
$831E:!byte $94,$92,$93,$93
$8322: 
$8322: label_8322
$8322:  AE 47 48   ldx $4847
$8325:  E0 8D      cpx #$8d
$8327:  F0 03      beq label_832c
$8329:  4C A7 83   jmp label_83a7
$832C: 
$832C: label_832c
$832C:  29 0F      and #$0f
$832E:  48         pha
$832F:  A8         tay
$8330:  BE 90 83   ldx $8390, y
$8333:  A0 08      ldy #$08
$8335:  A9 05      lda #$05
$8337:  20 4B 4C   jsr $4c4b
$833A:  68         pla
$833B:  AC 5F 8D   ldy $8d5f
$833E:  D9 9A 83   cmp $839a, y
$8341:  D0 27      bne label_836a
$8343:  EE 5F 8D   inc $8d5f
$8346:  AD 5F 8D   lda $8d5f
$8349:  49 0D      eor #$0d
$834B:  D0 40      bne label_838d
$834D:  8D 5F 8D   sta $8d5f
$8350:  A5 0A      lda $0a
$8352:  C9 11      cmp #$11
$8354:  D0 37      bne label_838d
$8356:  A5 09      lda $09
$8358:  C9 02      cmp #$02
$835A:  D0 31      bne label_838d
$835C:  AD D1 45   lda $45d1
$835F:  49 0B      eor #$0b
$8361:  8D D1 45   sta $45d1
$8364:  20 93 4C   jsr $4c93
$8367:  4C 8D 83   jmp label_838d
$836A: 
$836A: label_836a
$836A:  C0 0A      cpy #$0a
$836C:  D0 08      bne label_8376
$836E:  C9 08      cmp #$08
$8370:  D0 04      bne label_8376
$8372:  A2 03      ldx #$03
$8374:  D0 14      bne label_838a
$8376: 
$8376: label_8376
$8376:  C0 0B      cpy #$0b
$8378:  D0 08      bne label_8382
$837A:  C9 07      cmp #$07
$837C:  D0 04      bne label_8382
$837E:  A2 02      ldx #$02
$8380:  D0 08      bne label_838a
$8382: 
$8382: label_8382
$8382:  A2 01      ldx #$01
$8384:  CD 9A 83   cmp $839a
$8387:  F0 01      beq label_838a
$8389:  CA         dex
$838A: 
$838A: label_838a
$838A:  8E 5F 8D   stx $8d5f
$838D: 
$838D: label_838d
$838D:  4C 63 82   jmp label_8263
$8390:!byte $2C,$AC,$A2,$96,$90,$82,$73,$61
$8398:!byte $58,$43,$06,$07,$08,$09,$08,$07
$83A0:!byte $08,$07,$06,$07,$06,$05,$03
$83A7: 
$83A7: label_83a7
$83A7:  C9 B0      cmp #$b0
$83A9:  90 76      bcc label_8421
$83AB:  C9 B7      cmp #$b7
$83AD:  B0 72      bcs label_8421
$83AF:  48         pha
$83B0:  20 00 4C   jsr $4c00
$83B3:  D3 E5      dcp ( $e5 ), y
$83B5:  F4 A0      nop $a0, x
$83B7:  C1 E3      cmp ( $e3, x)
$83B9:  F4 E9      nop $e9, x
$83BB:  F6 E5      inc $e5, x
$83BD:  A0 D0      ldy #$d0
$83BF:  EC F2 BA   cpx $baf2
$83C2:  8D 00 68   sta $6800
$83C5:  C9 B0      cmp #$b0
$83C7:  D0 13      bne label_83dc
$83C9:  20 00 4C   jsr $4c00
$83CC:  CE EF EE   dec $eeef
$83CF:  E5 A1      sbc $a1
$83D1:  8D 00 A9   sta $a900
$83D4:  FF 85 2C   isc $2c85, x
$83D7:  E6 80      inc $80
$83D9:  4C D8 81   jmp label_81d8
$83DC: 
$83DC: label_83dc
$83DC:  38         sec
$83DD:  E9 B1      sbc #$b1
$83DF:  AA         tax
$83E0:  0A         asl
$83E1:  0A         asl
$83E2:  0A         asl
$83E3:  0A         asl
$83E4:  A8         tay
$83E5:  B9 80 10   lda $1080, y
$83E8:  D0 27      bne label_8411
$83EA:  B9 83 10   lda $1083, y
$83ED:  C9 C4      cmp #$c4
$83EF:  F0 20      beq label_8411
$83F1:  C9 D3      cmp #$d3
$83F3:  F0 1C      beq label_8411
$83F5:  8A         txa
$83F6:  85 2C      sta $2c
$83F8:  E6 80      inc $80
$83FA:  0A         asl
$83FB:  0A         asl
$83FC:  0A         asl
$83FD:  A8         tay
$83FE: 
$83FE: label_83fe
$83FE:  B9 00 10   lda $1000, y
$8401:  48         pha
$8402:  09 80      ora #$80
$8404:  20 03 4C   jsr $4c03
$8407:  C8         iny
$8408:  68         pla
$8409:  30 F3      bmi label_83fe
$840B:  20 06 4C   jsr $4c06
$840E:  4C 26 94   jmp label_9426
$8411: 
$8411: label_8411
$8411:  20 00 4C   jsr $4c00
$8414:  C9 EE      cmp #$ee
$8416:  F6 E1      inc $e1, x
$8418:  EC E9 E4   cpx $e4e9
$841B:  A1 8D      lda ( $8d, x)
$841D:  00         brk
$841E:  4C 26 94   jmp label_9426
$8421: 
$8421: label_8421
$8421:  4C E1 82   jmp label_82e1
$8424:!byte $A5,$2A,$20,$0C,$4C,$A5,$0A,$20
$842C:!byte $0C,$4C,$A5,$09,$20,$0C,$4C,$A5
$8434:!byte $2D,$20,$0C,$4C,$A5,$2E,$20,$0C
$843C:!byte $4C,$20,$06,$4C,$4C,$26,$94
$8443: 
$8443: label_8443
$8443:  A9 00      lda #$00
$8445:  99 00 4B   sta $4b00, y
$8448:  99 20 4B   sta $4b20, y
$844B:  B9 00 4A   lda $4a00, y
$844E:  C9 FC      cmp #$fc
$8450:  A9 C0      lda #$c0
$8452:  90 02      bcc label_8456
$8454:  A9 E0      lda #$e0
$8456: 
$8456: label_8456
$8456:  8D 6A 84   sta $846a
$8459:  8C 62 84   sty $8462
$845C:  A2 03      ldx #$03
$845E: 
$845E: label_845e
$845E:  BD 99 9A   lda $9a99, x
$8461:  09 00      ora #$00
$8463:  A8         tay
$8464:  B9 40 4B   lda $4b40, y
$8467:  29 1F      and #$1f
$8469:  09 C0      ora #$c0
$846B:  99 40 4B   sta $4b40, y
$846E:  CA         dex
$846F:  10 ED      bpl label_845e
$8471:  AC 62 84   ldy $8462
$8474:  60         rts
$8475: 
$8475: label_8475
$8475:  B9 00 4A   lda $4a00, y
$8478:  C9 74      cmp #$74
$847A:  B0 33      bcs label_84af
$847C:  C9 40      cmp #$40
$847E:  90 2F      bcc label_84af
$8480:  B9 E0 4A   lda $4ae0, y
$8483:  C9 FE      cmp #$fe
$8485:  F0 08      beq label_848f
$8487:  B9 00 4B   lda $4b00, y
$848A:  19 20 4B   ora $4b20, y
$848D:  F0 20      beq label_84af
$848F: 
$848F: label_848f
$848F:  8C AE 84   sty $84ae
$8492:  A9 FD      lda #$fd
$8494:  99 E0 4A   sta $4ae0, y
$8497:  A0 03      ldy #$03
$8499: 
$8499: label_8499
$8499:  B9 99 9A   lda $9a99, y
$849C:  0D AE 84   ora $84ae
$849F:  AA         tax
$84A0:  BD 40 4B   lda $4b40, x
$84A3:  29 1F      and #$1f
$84A5:  09 60      ora #$60
$84A7:  9D 40 4B   sta $4b40, x
$84AA:  88         dey
$84AB:  10 EC      bpl label_8499
$84AD:  A0 00      ldy #$00
$84AF: 
$84AF: label_84af
$84AF:  60         rts
$84B0: 
$84B0: label_84b0
$84B0:  A0 1F      ldy #$1f
$84B2: 
$84B2: label_84b2
$84B2:  B9 00 4A   lda $4a00, y
$84B5:  C9 FC      cmp #$fc
$84B7:  F0 08      beq label_84c1
$84B9:  C9 D8      cmp #$d8
$84BB:  F0 04      beq label_84c1
$84BD:  C9 70      cmp #$70
$84BF:  D0 06      bne label_84c7
$84C1: 
$84C1: label_84c1
$84C1:  20 43 84   jsr label_8443
$84C4:  4C D7 84   jmp label_84d7
$84C7: 
$84C7: label_84c7
$84C7:  B9 80 4A   lda $4a80, y
$84CA:  C5 09      cmp $09
$84CC:  D0 09      bne label_84d7
$84CE:  20 27 4C   jsr $4c27
$84D1:  4A         lsr
$84D2:  90 03      bcc label_84d7
$84D4:  20 75 84   jsr label_8475
$84D7: 
$84D7: label_84d7
$84D7:  88         dey
$84D8:  10 D8      bpl label_84b2
$84DA:  60         rts
$84DB:!byte $20,$2A,$4C,$A5,$0C,$C9,$1C,$F0
$84E3:!byte $17,$C9,$12,$F0,$13,$C9,$13,$F0
$84EB:!byte $0F,$60,$38,$66,$33,$A5,$0C,$C9
$84F3:!byte $12,$F0,$05,$C9,$13,$F0,$01,$60
$84FB:!byte $A9,$07,$4C,$4B,$4C,$20,$00,$4C
$8503:!byte $D0,$E1,$F3,$F3,$8D,$00,$4C,$26
$850B:!byte $94,$20,$DB,$84,$C6,$A8,$20,$FD
$8513:!byte $86,$20,$00,$4C,$CE,$EF,$F2,$F4
$851B:!byte $E8,$8D,$00,$AD,$31,$48,$20,$D2
$8523:!byte $86,$A6,$2E,$38,$F0,$2A,$CA,$86
$852B:!byte $2E,$86,$03,$20,$78,$86,$20,$ED
$8533:!byte $84,$4C,$26,$94,$20,$DB,$84,$E6
$853B:!byte $A8,$20,$FD,$86,$20,$00,$4C,$D3
$8543:!byte $EF,$F5,$F4,$E8,$8D,$00,$AD,$47
$854B:!byte $48,$20,$D2,$86,$A6,$2E,$E0,$1F
$8553:!byte $B0,$62,$E8,$86,$2E,$86,$03,$20
$855B:!byte $84,$86,$20,$ED,$84,$4C,$26,$94
$8563:!byte $20,$DB,$84,$C6,$A7,$20,$FD,$86
$856B:!byte $20,$00,$4C,$D7,$E5,$F3,$F4,$8D
$8573:!byte $00,$AD,$3B,$48,$20,$D2,$86,$A6
$857B:!byte $2D,$F0,$39,$CA,$86,$2D,$86,$02
$8583:!byte $20,$90,$86,$20,$ED,$84,$4C,$26
$858B:!byte $94,$20,$DB,$84,$E6,$A7,$20,$FD
$8593:!byte $86,$20,$00,$4C,$C5,$E1,$F3,$F4
$859B:!byte $8D,$00,$AD,$3D,$48,$20,$D2,$86
$85A3:!byte $A6,$2D,$E0,$1F,$B0,$0E,$E8,$86
$85AB:!byte $2D,$86,$02,$20,$9C,$86,$20,$ED
$85B3:!byte $84,$4C,$26,$94,$20,$00,$4C,$8D
$85BB:!byte $C4,$EF,$F3,$F4,$A0,$F4,$E8,$EF
$85C3:!byte $F5,$A0,$F7,$E9,$F3,$E8,$8D,$F4
$85CB:!byte $EF,$A0,$EC,$E5,$E1,$F6,$E5,$BF
$85D3:!byte $A0,$00,$20,$15,$4C,$C9,$D9,$F0
$85DB:!byte $12,$C9,$85,$F0,$04,$C9,$CE,$D0
$85E3:!byte $F1,$20,$00,$4C,$CE,$EF,$8D,$00
$85EB:!byte $4C,$26,$94,$20,$00,$4C,$D9,$E5
$85F3:!byte $F3,$8D,$8D,$C5,$F8,$E9,$F4,$A0
$85FB:!byte $F4,$EF,$8D,$00,$A5,$0A,$C9,$19
$8603:!byte $D0,$13,$20,$00,$4C,$D5,$EE,$E4
$860B:!byte $E5,$F2,$F7,$EF,$F2,$EC,$E4,$A1
$8613:!byte $8D,$00,$4C,$27,$86,$20,$00,$4C
$861B:!byte $C2,$F2,$E9,$F4,$E1,$EE,$EE,$E9
$8623:!byte $E1,$A1,$8D,$00,$A2,$00,$86,$13
$862B:!byte $20,$40,$6C,$A5,$0A,$C9,$19,$D0
$8633:!byte $0C,$A9,$08,$20,$09,$6C,$A9,$FF
$863B:!byte $85,$09,$4C,$45,$86,$A9,$02,$20
$8643:!byte $09,$6C,$A5,$06,$85,$2D,$A5,$07
$864B:!byte $85,$2E,$20,$2A,$4C,$A9,$00,$85
$8653:!byte $0A,$20,$2A,$4C,$A2,$00,$20,$24
$865B:!byte $6C,$54,$4C,$49,$53,$54,$00,$B0
$8663:!byte $F3,$A9,$FF,$85,$88,$A2,$01,$20
$866B:!byte $24,$6C,$4D,$41,$49,$4E,$2E,$4F
$8673:!byte $55,$54,$00,$B0,$F0,$AD,$31,$48
$867B:!byte $C9,$C4,$F0,$29,$C9,$C6,$F0,$3A
$8683:!byte $60,$AD,$47,$48,$C9,$C6,$F0,$1D
$868B:!byte $C9,$C4,$F0,$2E,$60,$AD,$3B,$48
$8693:!byte $C9,$C7,$F0,$11,$C9,$C5,$F0,$22
$869B:!byte $60,$AD,$3D,$48,$C9,$C5,$F0,$05
$86A3:!byte $C9,$C7,$F0,$16,$60,$68,$68,$20
$86AB:!byte $1B,$4C,$20,$00,$4C,$D3,$F4,$E1
$86B3:!byte $E9,$F2,$F7,$E1,$F9,$A0,$00,$4C
$86BB:!byte $1F,$8F,$68,$68,$20,$1B,$4C,$20
$86C3:!byte $00,$4C,$D3,$F4,$E1,$E9,$F2,$F7
$86CB:!byte $E1,$F9,$A0,$00,$4C,$2C,$8F,$85
$86D3:!byte $FA,$20,$7C,$98,$30,$0A,$A5,$FA
$86DB:!byte $F0,$05,$20,$C6,$98,$30,$01,$60
$86E3:!byte $68,$68,$20,$00,$4C,$C2,$EC,$EF
$86EB:!byte $E3,$EB,$E5,$E4,$A1,$8D,$00,$A9
$86F3:!byte $08,$20,$4B,$4C,$20,$2A,$4C,$4C
$86FB:!byte $26,$94,$A5,$0C,$29,$FC,$C9,$10
$8703:!byte $F0,$0D,$C9,$14,$F0,$15,$C9,$20
$870B:!byte $F0,$30,$C9,$28,$F0,$24,$60,$20
$8713:!byte $00,$4C,$D2,$E9,$E4,$E5,$A0,$00
$871B:!byte $4C,$26,$87,$20,$00,$4C,$C6,$EC
$8723:!byte $F9,$A0,$00,$A5,$0C,$29,$FE,$A6
$872B:!byte $A7,$F0,$06,$10,$02,$09,$01,$85
$8733:!byte $0C,$60,$20,$00,$4C,$D2,$EF,$F7
$873B:!byte $A0,$00,$A5,$0C,$29,$FC,$A6,$A8
$8743:!byte $30,$0C,$F0,$04,$09,$02,$D0,$06
$874B:!byte $09,$01,$A6,$A7,$30,$F6,$85,$0C
$8753:!byte $60,$20,$43,$6C,$4C,$D8,$81,$A5
$875B:!byte $78,$49,$80,$85,$78,$20,$00,$4C
$8763:!byte $D3,$EF,$F5,$EE,$E4,$F3,$A0,$CF
$876B:!byte $00,$24,$78,$30,$0A,$20,$00,$4C
$8773:!byte $E6,$E6,$8D,$00,$4C,$D8,$81,$A9
$877B:!byte $EE,$20,$03,$4C,$20,$06,$4C,$4C
$8783:!byte $D8,$81,$20,$00,$4C,$C1,$F4,$F4
$878B:!byte $E1,$E3,$EB,$AD,$00,$20,$21,$4C
$8793:!byte $C9,$04,$B0,$16,$A5,$0C,$C9,$1C
$879B:!byte $F0,$10,$20,$00,$4C,$CF,$EE,$A0
$87A3:!byte $E6,$EF,$EF,$F4,$A1,$8D,$00,$4C
$87AB:!byte $D8,$81,$20,$3F,$4C,$F0,$36,$20
$87B3:!byte $39,$4C,$20,$1E,$4C,$C9,$9D,$D0
$87BB:!byte $18,$A9,$9F,$91,$FC,$20,$00,$4C
$87C3:!byte $C2,$F2,$EF,$EB,$E5,$EE,$A1,$8D
$87CB:!byte $00,$A9,$0E,$20,$4B,$4C,$4C,$26
$87D3:!byte $94,$20,$42,$4C,$29,$FC,$F0,$0D
$87DB:!byte $C9,$B4,$F0,$09,$8E,$12,$80,$86
$87E3:!byte $88,$C9,$40,$B0,$03,$4C,$5B,$88
$87EB:!byte $C9,$D8,$F0,$08,$0A,$B0,$08,$A9
$87F3:!byte $05,$20,$3D,$6C,$20,$B0,$84,$20
$87FB:!byte $1E,$4C,$C9,$9F,$F0,$09,$C9,$AB
$8803:!byte $F0,$05,$4A,$C9,$42,$D0,$48,$AE
$880B:!byte $12,$80,$BD,$00,$4A,$C9,$78,$D0
$8813:!byte $0F,$20,$00,$4C,$CD,$E9,$F3,$F3
$881B:!byte $E5,$E4,$A1,$8D,$00,$4C,$26,$94
$8823:!byte $20,$00,$4C,$CD,$F5,$F2,$E4,$E5
$882B:!byte $F2,$E5,$E4,$A1,$8D,$00,$A9,$05
$8833:!byte $20,$3D,$6C,$A9,$05,$18,$65,$A7
$883B:!byte $8D,$40,$4A,$A9,$05,$18,$65,$A8
$8843:!byte $8D,$60,$4A,$38,$A2,$00,$20,$18
$884B:!byte $6C,$AC,$12,$80,$4C,$A6,$8A
$8852: 
$8852: label_8852
$8852:  20 51 80   jsr label_8051
$8855:  20 8F 8C   jsr label_8c8f
$8858:  4C 0F A7   jmp $a70f
$885B:!byte $20,$00,$4C,$CE,$EF,$F4,$E8,$E9
$8863:!byte $EE,$E7,$A0,$F4,$EF,$8D,$E1,$F4
$886B:!byte $F4,$E1,$E3,$EB,$A1,$8D,$00,$4C
$8873:!byte $26,$94,$20,$00,$4C,$C2,$EF,$E1
$887B:!byte $F2,$E4,$A0,$00,$A5,$2D,$85,$A9
$8883:!byte $A5,$2E,$85,$AA,$20,$42,$4C,$C9
$888B:!byte $2C,$B0,$23,$C9,$28,$B0,$22,$C9
$8893:!byte $1B,$F0,$35,$C9,$12,$B0,$17,$C9
$889B:!byte $10,$90,$13,$BC,$E0,$4A,$F0,$3D
$88A3:!byte $20,$00,$4C,$A2,$CE,$E1,$F9,$A1
$88AB:!byte $A2,$8D,$00,$4C,$26,$94,$4C,$E1
$88B3:!byte $82,$20,$03,$89,$85,$0C,$20,$00
$88BB:!byte $4C,$F3,$EB,$E9,$E6,$E6,$8D,$00
$88C3:!byte $A9,$03,$20,$46,$6C,$4C,$F2,$88
$88CB:!byte $20,$03,$89,$A9,$15,$85,$0C,$20
$88D3:!byte $00,$4C,$E3,$E1,$F2,$F0,$E5,$F4
$88DB:!byte $8D,$00,$4C,$F2,$88,$20,$03,$89
$88E3:!byte $18,$69,$02,$85,$0C,$20,$00,$4C
$88EB:!byte $E8,$EF,$F2,$F3,$E5,$8D,$00,$20
$88F3:!byte $42,$4C,$A9,$00,$9D,$00,$4A,$9D
$88FB:!byte $20,$4A,$9D,$A0,$4A,$4C,$26,$94
$8903:!byte $85,$BF,$A5,$0C,$C9,$1C,$F0,$1F
$890B:!byte $C9,$1D,$F0,$1B,$C9,$28,$90,$04
$8913:!byte $C9,$2C,$90,$13,$68,$68,$20,$00
$891B:!byte $4C,$8D,$CF,$EE,$A0,$E6,$EF,$EF
$8923:!byte $F4,$A1,$8D,$00,$4C,$26,$94,$A5
$892B:!byte $BF,$60,$85,$BF,$20,$42,$4C,$BD
$8933:!byte $C0,$4A,$85,$17,$A5,$0C,$29,$FC
$893B:!byte $C9,$28,$D0,$02,$E6,$17,$A5,$BF
$8943:!byte $60,$20,$00,$4C,$C3,$E1,$F3,$F4
$894B:!byte $AE,$AE,$AE,$8D,$00,$A9,$43,$20
$8953:!byte $86,$1D,$20,$00,$A7,$4C,$26,$94
$895B:!byte $20,$00,$4C,$C5,$EE,$F4,$E5,$F2
$8963:!byte $A0,$F7,$E8,$E1,$F4,$BF,$8D,$00
$896B:!byte $4C,$26,$94,$20,$FA,$90,$20,$00
$8973:!byte $4C,$C6,$E9,$F2,$E5,$AD,$00,$A0
$897B:!byte $03,$BE,$91,$8A,$BD,$00,$48,$29
$8983:!byte $FC,$C9,$B4,$F0,$06,$88,$10,$F1
$898B:!byte $4C,$E1,$82,$B9,$99,$8A,$85,$A7
$8993:!byte $B9,$9D,$8A,$85,$A8,$A9,$05,$8D
$899B:!byte $88,$8A,$8D,$89,$8A,$20,$39,$4C
$89A3:!byte $20,$75,$8A,$AD,$88,$8A,$85,$8A
$89AB:!byte $AD,$89,$8A,$85,$8B,$BD,$00,$48
$89B3:!byte $29,$03,$A8,$B9,$99,$8A,$85,$A7
$89BB:!byte $B9,$9D,$8A,$85,$A8,$20,$00,$4C
$89C3:!byte $C2,$CF,$CF,$CF,$CF,$CD,$A1,$8D
$89CB:!byte $00,$20,$B0,$84,$A9,$0A,$20,$4B
$89D3:!byte $4C,$A0,$04,$8C,$46,$8A,$8C,$4A
$89DB:!byte $8A,$8C,$1C,$8A,$20,$75,$8A,$20
$89E3:!byte $3C,$4C,$20,$42,$4C,$8E,$6C,$8A
$89EB:!byte $F0,$1C,$C9,$10,$F0,$12,$C9,$11
$89F3:!byte $F0,$0E,$C9,$1C,$90,$10,$C9,$FC
$89FB:!byte $F0,$0C,$29,$F8,$C9,$78,$F0,$06
$8A03:!byte $38,$6E,$46,$8A,$30,$17,$20,$1E
$8A0B:!byte $4C,$A2,$06,$DD,$8A,$8A,$D0,$05
$8A13:!byte $6E,$4A,$8A,$30,$08,$CA,$10,$F3
$8A1B:!byte $A0,$00,$88,$D0,$BC,$AD,$40,$4A
$8A23:!byte $48,$AD,$60,$4A,$48,$AD,$88,$8A
$8A2B:!byte $85,$8C,$8D,$40,$4A,$AD,$89,$8A
$8A33:!byte $85,$8D,$8D,$60,$4A,$A9,$07,$20
$8A3B:!byte $0C,$6C,$B0,$29,$A2,$00,$18,$20
$8A43:!byte $18,$6C,$A9,$00,$30,$22,$A9,$00
$8A4B:!byte $10,$1B,$20,$00,$4C,$C4,$EF,$EF
$8A53:!byte $F2,$A0,$E4,$E5,$F3,$F4,$F2,$EF
$8A5B:!byte $F9,$E5,$E4,$A1,$8D,$00,$20,$1E
$8A63:!byte $4C,$A9,$44,$91,$FC,$4C,$26,$94
$8A6B:!byte $A0,$00,$D0,$32,$20,$87,$4C,$4C
$8A73:!byte $26,$94,$AD,$88,$8A,$18,$65,$A7
$8A7B:!byte $8D,$88,$8A,$AD,$89,$8A,$18,$65
$8A83:!byte $A8,$8D,$89,$8A,$60,$00,$00,$97
$8A8B:!byte $98,$B8,$B9,$BA,$BB,$99,$31,$3D
$8A93:!byte $47,$3B,$F5,$01,$0B,$FF,$00,$01
$8A9B:!byte $00,$FF,$FF,$00,$01,$00,$A9,$05
$8AA3:!byte $20,$3D,$6C,$8C,$12,$80,$20,$51
$8AAB:!byte $80,$AC,$12,$80,$A9,$00,$99,$00
$8AB3:!byte $4A,$99,$20,$4A,$99,$40,$4A,$99
$8ABB:!byte $60,$4A,$99,$80,$4A,$99,$E0,$4A
$8AC3:!byte $99,$C0,$4A,$99,$00,$42,$4C,$26
$8ACB:!byte $94,$20,$00,$4C,$C7,$E5,$F4,$AD
$8AD3:!byte $00,$20,$3F,$4C,$F0,$5F,$20,$39
$8ADB:!byte $4C,$20,$1E,$4C,$29,$FE,$C9,$B0
$8AE3:!byte $D0,$24,$A9,$44,$91,$FC,$20,$33
$8AEB:!byte $4C,$A9,$64,$85,$10,$20,$00,$4C
$8AF3:!byte $C2,$EF,$F2,$F2,$EF,$F7,$E5,$E4
$8AFB:!byte $A1,$8D,$00,$A9,$0F,$20,$4B,$4C
$8B03:!byte $20,$1B,$4C,$4C,$26,$94,$20,$42
$8B0B:!byte $4C,$D0,$2D,$20,$1E,$4C,$C9,$2D
$8B13:!byte $D0,$03,$4C,$3B,$8B,$C9,$9C,$F0
$8B1B:!byte $1F,$C9,$9A,$F0,$1B,$C9,$9B,$F0
$8B23:!byte $17,$20,$00,$4C,$CE,$EF,$F4,$E8
$8B2B:!byte $E9,$EE,$E7,$A0,$F4,$EF,$A0,$E7
$8B33:!byte $E5,$F4,$A1,$8D,$00,$4C,$26,$94
$8B3B:!byte $20,$8A,$8C,$20,$09,$A7,$4C,$26
$8B43:!byte $94,$20,$00,$4C,$C8,$EF,$EC,$E5
$8B4B:!byte $A0,$F5,$F0,$AD,$00,$20,$21,$4C
$8B53:!byte $C9,$AB,$F0,$16,$20,$00,$4C,$CF
$8B5B:!byte $EE,$EC,$F9,$A0,$E9,$EE,$8D,$E2
$8B63:!byte $E5,$E4,$A1,$00,$20,$06,$4C,$4C
$8B6B:!byte $D8,$81,$20,$00,$4C,$C6,$EF,$F2
$8B73:!byte $A0,$E8,$EF,$F7,$8D,$ED,$E1,$EE
$8B7B:!byte $F9,$A0,$E8,$EF,$F5,$F2,$F3,$BF
$8B83:!byte $A0,$00,$20,$15,$4C,$38,$E9,$B0
$8B8B:!byte $F0,$DA,$C9,$0A,$B0,$D6,$48,$20
$8B93:!byte $09,$4C,$20,$06,$4C,$68,$18,$F8
$8B9B:!byte $65,$1E,$C9,$24,$90,$02,$E9,$24
$8BA3:!byte $8D,$02,$8C,$D8,$A9,$0A,$8D,$50
$8BAB:!byte $8C,$20,$B2,$9B,$20,$1B,$4C,$AD
$8BB3:!byte $96,$9A,$F0,$0A,$AE,$97,$9A,$E0
$8BBB:!byte $C1,$D0,$03,$4C,$FF,$94,$CE,$50
$8BC3:!byte $8C,$D0,$E6,$20,$3A,$97,$A9,$D3
$8BCB:!byte $20,$2D,$8C,$20,$00,$4C,$8D,$DA
$8BD3:!byte $FA,$FA,$FA,$FA,$FA,$AE,$AE,$AE
$8BDB:!byte $8D,$00,$A9,$10,$20,$2D,$4C,$20
$8BE3:!byte $9B,$8C,$20,$51,$4C,$20,$6F,$4C
$8BEB:!byte $20,$30,$4C,$20,$EA,$9A,$A5,$2D
$8BF3:!byte $85,$A9,$A5,$2E,$85,$AA,$20,$42
$8BFB:!byte $4C,$8A,$D0,$09,$A5,$1E,$C9,$00
$8C03:!byte $D0,$D8,$4C,$1E,$8C,$20,$00,$4C
$8C0B:!byte $8D,$D4,$E8,$F2,$EF,$F7,$EE,$A0
$8C13:!byte $EF,$F5,$F4,$A1,$8D,$00,$A9,$08
$8C1B:!byte $20,$4B,$4C,$A9,$C7,$20,$2D,$8C
$8C23:!byte $E6,$2D,$E6,$02,$20,$1B,$4C,$4C
$8C2B:!byte $26,$94,$8D,$43,$8C,$A2,$05,$8A
$8C33:!byte $0A,$0A,$0A,$0A,$A8,$B9,$80,$10
$8C3B:!byte $D0,$0C,$B9,$83,$10,$49,$14,$C9
$8C43:!byte $00,$D0,$03,$99,$83,$10,$CA,$10
$8C4B:!byte $E6,$20,$30,$4C,$60,$00,$20,$00
$8C53:!byte $4C,$C9,$E7,$EE,$E9,$F4,$E5,$A0
$8C5B:!byte $F4,$EF,$F2,$E3,$E8,$A1,$8D,$00
$8C63:!byte $AD,$86,$11,$D0,$13,$20,$00,$4C
$8C6B:!byte $CE,$EF,$EE,$E5,$A0,$EF,$F7,$EE
$8C73:!byte $E5,$E4,$A1,$8D,$00,$4C,$D8,$81
$8C7B:!byte $F8,$38,$E9,$01,$8D,$86,$11,$D8
$8C83:!byte $A9,$F0,$85,$10,$4C,$26,$94,$A9
$8C8B:!byte $53,$4C,$86,$1D
$8C8F: 
$8C8F: label_8c8f
$8C8F:  A2 00      ldx #$00
$8C91:  20 40 6C   jsr $6c40
$8C94:  A9 50      lda #$50
$8C96:  4C 86 1D   jmp $1d86
$8C99:!byte $FF,$FF
$8C9B: 
$8C9B: label_8c9b
$8C9B:  A5 1E      lda $1e
$8C9D:  CD 9A 8C   cmp $8c9a
$8CA0:  F0 0D      beq label_8caf
$8CA2:  8D 9A 8C   sta $8c9a
$8CA5:  A5 1E      lda $1e
$8CA7:  C9 20      cmp #$20
$8CA9:  F0 05      beq label_8cb0
$8CAB:  C9 05      cmp #$05
$8CAD:  F0 01      beq label_8cb0
$8CAF: 
$8CAF: label_8caf
$8CAF:  60         rts
$8CB0: 
$8CB0: label_8cb0
$8CB0:  A2 EA      ldx #$ea
$8CB2:  A9 99      lda #$99
$8CB4:  A4 1E      ldy $1e
$8CB6:  C0 20      cpy #$20
$8CB8:  B0 08      bcs label_8cc2
$8CBA:  C0 05      cpy #$05
$8CBC:  90 04      bcc label_8cc2
$8CBE:  A2 2C      ldx #$2c
$8CC0:  A9 44      lda #$44
$8CC2: 
$8CC2: label_8cc2
$8CC2:  8E 16 8D   stx $8d16
$8CC5:  8D DE 8C   sta $8cde
$8CC8:  A2 1E      ldx #$1e
$8CCA:  86 AA      stx $aa
$8CCC:  E8         inx
$8CCD:  86 A9      stx $a9
$8CCF: 
$8CCF: label_8ccf
$8CCF:  20 1E 4C   jsr $4c1e
$8CD2:  B1 FC      lda ( $fc ), y
$8CD4:  C9 87      cmp #$87
$8CD6:  D0 0B      bne label_8ce3
$8CD8:  E6 AA      inc $aa
$8CDA:  20 1E 4C   jsr $4c1e
$8CDD:  A9 FF      lda #$ff
$8CDF:  91 FC      sta ( $fc ), y
$8CE1:  C6 AA      dec $aa
$8CE3: 
$8CE3: label_8ce3
$8CE3:  C6 A9      dec $a9
$8CE5:  10 E8      bpl label_8ccf
$8CE7:  A9 1F      lda #$1f
$8CE9:  85 A9      sta $a9
$8CEB:  C6 AA      dec $aa
$8CED:  10 E0      bpl label_8ccf
$8CEF:  20 21 4C   jsr $4c21
$8CF2:  29 FE      and #$fe
$8CF4:  C9 48      cmp #$48
$8CF6:  F0 27      beq label_8d1f
$8CF8:  AE 99 8C   ldx $8c99
$8CFB: 
$8CFB: label_8cfb
$8CFB:  CA         dex
$8CFC:  30 21      bmi label_8d1f
$8CFE:  8E 1C 8D   stx $8d1c
$8D01:  BD 80 43   lda $4380, x
$8D04:  85 A9      sta $a9
$8D06:  BD A0 43   lda $43a0, x
$8D09:  85 AA      sta $aa
$8D0B:  BD C0 43   lda $43c0, x
$8D0E:  8D 15 8D   sta $8d15
$8D11:  20 1E 4C   jsr $4c1e
$8D14:  A9 00      lda #$00
$8D16:  2C A9 03   bit $03a9
$8D19:  91 FC      sta ( $fc ), y
$8D1B:  A2 00      ldx #$00
$8D1D:  10 DC      bpl label_8cfb
$8D1F: 
$8D1F: label_8d1f
$8D1F:  60         rts
$8D20: 
$8D20: label_8d20
$8D20:  A9 FF      lda #$ff
$8D22:  8D 9A 8C   sta $8c9a
$8D25:  A2 1F      ldx #$1f
$8D27:  86 A9      stx $a9
$8D29:  86 AA      stx $aa
$8D2B:  A2 00      ldx #$00
$8D2D:  8E 99 8C   stx $8c99
$8D30: 
$8D30: label_8d30
$8D30:  20 1E 4C   jsr $4c1e
$8D33:  29 FE      and #$fe
$8D35:  C9 48      cmp #$48
$8D37:  D0 15      bne label_8d4e
$8D39:  AE 99 8C   ldx $8c99
$8D3C:  B1 FC      lda ( $fc ), y
$8D3E:  9D C0 43   sta $43c0, x
$8D41:  A5 A9      lda $a9
$8D43:  9D 80 43   sta $4380, x
$8D46:  A5 AA      lda $aa
$8D48:  9D A0 43   sta $43a0, x
$8D4B:  EE 99 8C   inc $8c99
$8D4E: 
$8D4E: label_8d4e
$8D4E:  C6 A9      dec $a9
$8D50:  10 DE      bpl label_8d30
$8D52:  A9 1F      lda #$1f
$8D54:  85 A9      sta $a9
$8D56:  C6 AA      dec $aa
$8D58:  10 D6      bpl label_8d30
$8D5A:  20 B0 8C   jsr label_8cb0
$8D5D:  60         rts
$8D5E:!byte $00,$00,$00,$AA,$BD,$40,$4B,$09
$8D66:!byte $A0,$9D,$40,$4B,$98,$18,$60,$20
$8D6E:!byte $00,$4C,$CA,$E9,$ED,$ED,$F9,$AD
$8D76:!byte $00,$AD,$84,$11,$D0,$10,$20,$00
$8D7E:!byte $4C,$CE,$EF,$A0,$EB,$E5,$F9,$F3
$8D86:!byte $A1,$8D,$00,$4C,$26,$94,$20,$3F
$8D8E:!byte $4C,$D0,$03,$4C,$26,$94,$20,$39
$8D96:!byte $4C,$20,$1E,$4C,$C9,$B9,$F0,$71
$8D9E:!byte $C9,$BB,$F0,$6D,$C9,$97,$F0,$43
$8DA6:!byte $C9,$98,$F0,$3F,$C9,$84,$F0,$04
$8DAE:!byte $C9,$85,$D0,$03,$4C,$47,$8E,$A0
$8DB6:!byte $1F,$B9,$40,$4A,$C5,$A9,$D0,$18
$8DBE:!byte $B9,$60,$4A,$C5,$AA,$D0,$11,$B9
$8DC6:!byte $80,$4A,$C5,$09,$D0,$0A,$B9,$00
$8DCE:!byte $4A,$C9,$01,$D0,$03,$4C,$FA,$8D
$8DD6:!byte $88,$10,$DE,$20,$00,$4C,$CE,$EF
$8DDE:!byte $A0,$EC,$EF,$E3,$EB,$A1,$8D,$00
$8DE6:!byte $4C,$26,$94,$20,$27,$6C,$B0,$F8
$8DEE:!byte $4C,$AA,$8E,$20,$8A,$8C,$20,$03
$8DF6:!byte $A7,$4C,$26,$94,$B9,$C0,$4A,$30
$8DFE:!byte $F2,$20,$00,$4C,$CE,$EF,$A0,$EC
$8E06:!byte $EF,$E3,$EB,$A1,$8D,$00,$4C,$26
$8E0E:!byte $94,$20,$72,$4C,$20,$54,$4C,$48
$8E16:!byte $A5,$FC,$48,$A5,$FD,$48,$20,$27
$8E1E:!byte $6C,$68,$85,$FD,$68,$85,$FC,$68
$8E26:!byte $B0,$1C,$A6,$F9,$DD,$85,$10,$B0
$8E2E:!byte $7B,$B1,$FC,$38,$E9,$01,$91,$FC
$8E36:!byte $20,$00,$4C,$D5,$EE,$EC,$EF,$E3
$8E3E:!byte $EB,$E5,$E4,$A1,$8D,$00,$4C,$26
$8E46:!byte $94,$20,$42,$4C,$D0,$03,$4C,$D9
$8E4E:!byte $8D,$8E,$12,$80,$20,$39,$80,$D0
$8E56:!byte $82,$20,$27,$6C,$B0,$E8,$20,$72
$8E5E:!byte $4C,$20,$54,$4C,$A4,$F9,$D9,$85
$8E66:!byte $10,$B0,$41,$20,$51,$80,$AC,$12
$8E6E:!byte $80,$A9,$00,$99,$E0,$4A,$98,$18
$8E76:!byte $6D,$99,$9A,$20,$61,$8D,$6D,$9A
$8E7E:!byte $9A,$20,$61,$8D,$6D,$9B,$9A,$20
$8E86:!byte $61,$8D,$6D,$9C,$9A,$20,$61,$8D
$8E8E:!byte $20,$00,$4C,$A2,$C9,$A0,$F4,$E8
$8E96:!byte $E1,$EE,$EB,$A0,$F4,$E8,$E5,$E5
$8E9E:!byte $A1,$A2,$8D,$00,$A9,$02,$20,$3A
$8EA6:!byte $6C,$4C,$26,$94,$20,$00,$4C,$CB
$8EAE:!byte $E5,$F9,$A0,$E2,$F2,$EF,$EB,$E5
$8EB6:!byte $A1,$8D,$00,$F8,$AD,$84,$11,$38
$8EBE:!byte $E9,$01,$8D,$84,$11,$D8,$4C,$26
$8EC6:!byte $94,$20,$00,$4C,$CB,$EC,$E9,$ED
$8ECE:!byte $E2,$AD,$00,$A5,$0C,$29,$FE,$C9
$8ED6:!byte $12,$D0,$10,$20,$00,$4C,$CF,$EE
$8EDE:!byte $A0,$E6,$EF,$EF,$F4,$A1,$8D,$00
$8EE6:!byte $4C,$D8,$81,$20,$AA,$81,$C9,$C8
$8EEE:!byte $F0,$2F,$C9,$C9,$F0,$38,$C9,$86
$8EF6:!byte $F0,$34,$20,$3F,$4C,$20,$39,$4C
$8EFE:!byte $20,$1E,$4C,$C9,$4C,$F0,$08,$4A
$8F06:!byte $C9,$65,$F0,$03,$4C,$E1,$82,$A5
$8F0E:!byte $A9,$85,$2D,$85,$02,$A5,$AA,$85
$8F16:!byte $2E,$85,$03,$20,$1B,$4C,$4C,$26
$8F1E:!byte $94,$20,$00,$4C,$D5,$F0,$A1,$8D
$8F26:!byte $00,$E6,$09,$4C,$38,$8F,$20,$00
$8F2E:!byte $4C,$C4,$EF,$F7,$EE,$A1,$8D,$00
$8F36: 
$8F36: label_8f36
$8F36:  C6 09      dec $09
$8F38:  20 51 4C   jsr $4c51
$8F3B:  20 99 4C   jsr $4c99
$8F3E:  20 D1 98   jsr label_98d1
$8F41:  20 EA 9A   jsr label_9aea
$8F44:  A9 00      lda #$00
$8F46:  20 2D 4C   jsr $4c2d
$8F49:  20 1B 4C   jsr $4c1b
$8F4C:  4C 26 94   jmp label_9426
$8F4F:!byte $20,$00,$4C,$CC,$EF,$EF,$EB,$AD
$8F57:!byte $00,$20,$3F,$4C,$F0,$60,$20,$39
$8F5F:!byte $4C,$20,$1E,$4C,$C9,$29,$D0,$47
$8F67:!byte $20,$27,$6C,$B0,$28,$20,$72,$4C
$8F6F:!byte $20,$54,$4C,$A6,$F9,$DD,$86,$10
$8F77:!byte $90,$1E,$20,$00,$4C,$C4,$E5,$E1
$8F7F:!byte $F4,$E8,$A0,$F6,$E9,$F3,$E9,$EF
$8F87:!byte $EE,$A1,$8D,$00,$A9,$01,$A6,$F8
$8F8F:!byte $20,$8D,$4C,$E6,$80,$4C,$26,$94
$8F97:!byte $20,$00,$4C,$D3,$F4,$F2,$E1,$EE
$8F9F:!byte $E7,$E5,$A0,$F6,$E9,$F3,$E9,$EF
$8FA7:!byte $EE,$A1,$8D,$00,$4C,$81,$92,$A2
$8FAF:!byte $04,$DD,$C5,$8F,$F0,$0B,$CA,$10
$8FB7:!byte $F8,$A9,$49,$4C,$52,$89,$4C,$D8
$8FBF:!byte $81,$A9,$4C,$4C,$52,$89,$89,$8A
$8FC7:!byte $A0,$A4,$F8,$20,$00,$4C,$CD,$E9
$8FCF:!byte $F8,$A0,$D2,$E5,$E1,$E7,$E5,$EE
$8FD7:!byte $F4,$F3,$8D,$00,$A9,$4D,$4C,$52
$8FDF:!byte $89,$20,$00,$4C,$CE,$E5,$F7,$A0
$8FE7:!byte $CF,$F2,$E4,$E5,$F2,$8D,$00,$A9
$8FEF:!byte $4D,$20,$86,$1D,$20,$03,$A7,$4C
$8FF7:!byte $26,$94,$20,$00,$4C,$D4,$EF,$EF
$8FFF:!byte $A0,$E8,$E5,$E1,$F6,$F9,$A1,$8D
$9007:!byte $00,$4C,$26,$94,$20,$00,$4C,$C9
$900F:!byte $F4,$A7,$F3,$A0,$E1,$EC,$F2,$E5
$9017:!byte $E1,$E4,$F9,$8D,$EF,$F0,$E5,$EE
$901F:!byte $A1,$8D,$00,$4C,$D8,$81,$20,$FA
$9027:!byte $90,$20,$00,$4C,$CF,$F0,$E5,$EE
$902F:!byte $AD,$00,$20,$3F,$4C,$D0,$03,$4C
$9037:!byte $26,$94,$20,$39,$4C,$20,$1E,$4C
$903F:!byte $C9,$AF,$F0,$C8,$C9,$99,$F0,$B2
$9047:!byte $C9,$97,$F0,$17,$C9,$98,$F0,$13
$904F:!byte $C9,$B8,$F0,$6E,$C9,$B9,$D0,$03
$9057:!byte $4C,$E2,$90,$C9,$BA,$F0,$63,$C9
$905F:!byte $BB,$D0,$03,$4C,$E2,$90,$A0,$00
$9067:!byte $B9,$40,$4A,$C5,$A9,$D0,$1C,$B9
$906F:!byte $60,$4A,$C5,$AA,$D0,$15,$B9,$80
$9077:!byte $4A,$C5,$09,$D0,$0E,$B9,$00,$4A
$907F:!byte $C9,$0E,$F0,$18,$C9,$01,$D0,$03
$9087:!byte $4C,$92,$90,$C8,$C0,$20,$D0,$D8
$908F:!byte $4C,$A9,$90,$20,$8A,$8C,$20,$06
$9097:!byte $A7,$4C,$26,$94,$20,$00,$4C,$C3
$909F:!byte $E1,$EE,$A7,$F4,$A1,$8D,$00,$4C
$90A7:!byte $26,$94,$20,$00,$4C,$CE,$EF,$F4
$90AF:!byte $E8,$E9,$EE,$E7,$A0,$F4,$EF,$8D
$90B7:!byte $EF,$F0,$E5,$EE,$A1,$8D,$00,$4C
$90BF:!byte $26,$94,$85,$13,$A9,$04,$85,$14
$90C7:!byte $A5,$A9,$85,$15,$A5,$AA,$85,$16
$90CF:!byte $A9,$44,$91,$FC,$20,$00,$4C,$CF
$90D7:!byte $F0,$E5,$EE,$E5,$E4,$A1,$8D,$00
$90DF:!byte $4C,$26,$94,$20,$00,$4C,$CC,$EF
$90E7:!byte $E3,$EB,$E5,$E4,$A1,$8D,$00,$4C
$90EF:!byte $26,$94
$90F1: 
$90F1: label_90f1
$90F1:  A5 13      lda $13
$90F3:  F0 04      beq label_90f9
$90F5:  C6 14      dec $14
$90F7:  F0 01      beq label_90fa
$90F9: 
$90F9: label_90f9
$90F9:  60         rts
$90FA: 
$90FA: label_90fa
$90FA:  A5 13      lda $13
$90FC:  F0 13      beq label_9111
$90FE:  A5 15      lda $15
$9100:  85 A9      sta $a9
$9102:  A5 16      lda $16
$9104:  85 AA      sta $aa
$9106:  20 1E 4C   jsr $4c1e
$9109:  A5 13      lda $13
$910B:  91 FC      sta ( $fc ), y
$910D:  A9 00      lda #$00
$910F:  85 13      sta $13
$9111: 
$9111: label_9111
$9111:  60         rts
$9112:!byte $20,$FA,$90,$20,$00,$4C,$D0,$F5
$911A:!byte $F3,$E8,$AD,$00,$20,$3F,$4C,$D0
$9122:!byte $03,$4C,$26,$94,$20,$8A,$8C,$20
$912A:!byte $0C,$A7,$4C,$26,$94,$20,$00,$4C
$9132:!byte $D1,$F5,$E9,$F4,$BA,$8D,$00,$A5
$913A:!byte $0A,$C9,$19,$D0,$03,$4C,$47,$93
$9142:!byte $20,$00,$4C,$D3,$E1,$F6,$E5,$A0
$914A:!byte $E7,$E1,$ED,$E5,$BF,$A0,$00,$20
$9152:!byte $15,$4C,$C9,$D9,$F0,$0E,$C9,$CE
$915A:!byte $D0,$F5,$20,$00,$4C,$CE,$EF,$8D
$9162:!byte $00,$4C,$D8,$81,$20,$00,$4C,$D9
$916A:!byte $E5,$F3,$8D,$00,$A9,$02,$20,$09
$9172:!byte $6C,$20,$00,$4C,$D3,$E1,$F6,$E9
$917A:!byte $EE,$E7,$AE,$AE,$AE,$8D,$00,$A2
$9182:!byte $2F,$B5,$02,$9D,$00,$BC,$CA,$10
$918A:!byte $F8,$20,$2D,$6C,$53,$3A,$50,$52
$9192:!byte $54,$59,$2E,$44,$41,$54,$41,$00
$919A:!byte $00,$BC,$30,$00,$20,$2D,$6C,$53
$91A2:!byte $3A,$4C,$49,$53,$54,$00,$00,$4A
$91AA:!byte $00,$02,$A2,$00,$20,$24,$6C,$54
$91B2:!byte $4C,$49,$53,$54,$00,$20,$2D,$6C
$91BA:!byte $53,$3A,$53,$4C,$49,$53,$54,$00
$91C2:!byte $00,$4A,$00,$02,$A2,$00,$20,$24
$91CA:!byte $6C,$4C,$49,$53,$54,$00,$20,$2D
$91D2:!byte $6C,$53,$3A,$52,$4F,$53,$54,$45
$91DA:!byte $52,$00,$00,$10,$00,$04,$20,$00
$91E2:!byte $4C,$C4,$EF,$EE,$E5,$AE,$8D,$00
$91EA:!byte $A5,$0A,$38,$E9,$01,$4A,$4A,$4A
$91F2:!byte $18,$69,$03,$20,$09,$6C,$4C,$26
$91FA:!byte $94,$20,$00,$4C,$D2,$E5,$E1,$E4
$9202:!byte $F9,$AE,$AE,$AE,$8D,$00,$A9,$52
$920A:!byte $4C,$52,$89,$20,$00,$4C,$D3,$E5
$9212:!byte $E1,$F2,$E3,$E8,$AD,$00,$20,$3F
$921A:!byte $4C,$F0,$06,$20,$8A,$8C,$20,$00
$9222:!byte $A7,$4C,$26,$94,$20,$00,$4C,$D4
$922A:!byte $E1,$EC,$EB,$AD,$00,$20,$3F,$4C
$9232:!byte $F0,$05,$A9,$54,$4C,$52,$89,$4C
$923A:!byte $26,$94,$20,$00,$4C,$D5,$F3,$E5
$9242:!byte $A0,$E9,$F4,$E5,$ED,$8D,$00,$A9
$924A:!byte $55,$4C,$52,$89,$20,$00,$4C,$D6
$9252:!byte $E9,$E5,$F7,$A0,$E1,$A0,$E7,$E5
$925A:!byte $ED,$A1,$8D,$00,$AD,$85,$11,$D0
$9262:!byte $16,$20,$00,$4C,$D9,$EF,$F5,$A0
$926A:!byte $E8,$E1,$F6,$E5,$A0,$EE,$EF,$EE
$9272:!byte $E5,$A1,$8D,$00,$4C,$D8,$81,$F8
$927A:!byte $38,$E9,$01,$8D,$85,$11,$D8,$A9
$9282:!byte $56,$4C,$52,$89,$20,$00,$4C,$D8
$928A:!byte $AD,$E9,$F4,$A0,$00,$A6,$0C,$8A
$9292:!byte $29,$FC,$C9,$1C,$D0,$25,$20,$00
$929A:!byte $4C,$F7,$E8,$E1,$F4,$BF,$8D,$00
$92A2:!byte $4C,$26,$94,$20,$00,$4C,$8D,$CE
$92AA:!byte $EF,$A0,$EC,$E1,$EE,$E4,$A0,$EE
$92B2:!byte $E5,$E1,$F2,$E2,$F9,$A1,$8D,$00
$92BA:!byte $4C,$26,$94,$C9,$14,$D0,$20,$20
$92C2:!byte $AA,$81,$AA,$A9,$1C,$20,$78,$4C
$92CA:!byte $B0,$05,$20,$3F,$98,$90,$D4,$20
$92D2:!byte $00,$4C,$E3,$E1,$F2,$F0,$E5,$F4
$92DA:!byte $A1,$8D,$00,$A2,$1B,$D0,$33,$C9
$92E2:!byte $10,$D0,$0F,$20,$00,$4C,$E8,$EF
$92EA:!byte $F2,$F3,$E5,$A1,$8D,$00,$CA,$CA
$92F2:!byte $D0,$20,$20,$AA,$81,$4A,$C9,$35
$92FA:!byte $F0,$4B,$20,$3F,$98,$90,$A4,$20
$9302:!byte $00,$4C,$F3,$EB,$E9,$E6,$E6,$A1
$930A:!byte $8D,$00,$AD,$CD,$03,$20,$46,$6C
$9312:!byte $A6,$0C,$20,$1E,$93,$A9,$1C,$85
$931A:!byte $0C,$4C,$26,$94,$8E,$25,$93,$20
$9322:!byte $48,$4C,$A9,$00,$9D,$00,$4A,$9D
$932A:!byte $20,$4A,$A5,$09,$9D,$80,$4A,$A5
$9332:!byte $2D,$9D,$40,$4A,$A5,$2E,$9D,$60
$933A:!byte $4A,$A9,$00,$9D,$E0,$4A,$9D,$C0
$9342:!byte $4A,$9D,$00,$42,$60,$20,$00,$4C
$934A:!byte $8D,$CE,$EF,$F4,$A0,$E8,$E5,$F2
$9352:!byte $E5,$A1,$8D,$00,$4C,$D8,$81,$20
$935A:!byte $00,$4C,$D9,$E5,$EC,$EC,$A0,$F7
$9362:!byte $E8,$E1,$F4,$BF,$8D,$00,$20,$96
$936A:!byte $4C,$90,$1B,$A5,$C9,$C9,$19,$F0
$9372:!byte $06,$20,$06,$4C,$20,$06,$4C,$20
$937A:!byte $00,$4C,$CE,$EF,$F4,$E8,$E9,$EE
$9382:!byte $E7,$8D,$00,$4C,$D8,$81,$20,$06
$938A:!byte $4C,$A5,$0A,$C9,$1E,$B0,$12,$20
$9392:!byte $00,$4C,$CE,$EF,$A0,$E5,$E6,$E6
$939A:!byte $E5,$E3,$F4,$A1,$8D,$00,$4C,$26
$93A2:!byte $94,$A9,$59,$20,$86,$1D,$20,$00
$93AA:!byte $A7,$4C,$D8,$81,$20,$00,$4C,$DA
$93B2:!byte $AD,$F3,$F4,$E1,$F4,$F3,$AE,$AE
$93BA:!byte $AE,$8D,$00,$A9,$5A,$4C,$52,$89
$93C2: 
$93C2: label_93c2
$93C2:  8C D7 93   sty $93d7
$93C5:  20 57 4C   jsr $4c57
$93C8:  18         clc
$93C9:  69 01      adc #$01
$93CB:  8D D5 93   sta $93d5
$93CE:  20 72 4C   jsr $4c72
$93D1:  AC D7 93   ldy $93d7
$93D4:  C9 FF      cmp #$ff
$93D6:  60         rts
$93D7:!byte $00
$93D8: 
$93D8: label_93d8
$93D8:  A5 0C      lda $0c
$93DA:  C9 1C      cmp #$1c
$93DC:  D0 44      bne label_9422
$93DE:  A9 00      lda #$00
$93E0:  8D 23 94   sta $9423
$93E3: 
$93E3: label_93e3
$93E3:  AD 23 94   lda $9423
$93E6:  0A         asl
$93E7:  0A         asl
$93E8:  0A         asl
$93E9:  0A         asl
$93EA:  A8         tay
$93EB:  B9 80 10   lda $1080, y
$93EE:  D0 28      bne label_9418
$93F0:  B9 83 10   lda $1083, y
$93F3:  C9 C4      cmp #$c4
$93F5:  F0 21      beq label_9418
$93F7:  C9 D0      cmp #$d0
$93F9:  F0 1D      beq label_9418
$93FB:  B9 85 10   lda $1085, y
$93FE: 
$93FE: label_93fe
$93FE:  20 C2 93   jsr label_93c2
$9401:  90 15      bcc label_9418
$9403:  A9 D0      lda #$d0
$9405:  99 83 10   sta $1083, y
$9408:  E6 80      inc $80
$940A:  20 00 4C   jsr $4c00
$940D:  D0 EF      bne label_93fe
$940F:  E9 F3      sbc #$f3
$9411:  EF EE E5   isc $e5ee
$9414:  E4 A1      cpx $a1
$9416:  8D 00 EE   sta $ee00
$9419:  23 94      rla ( $94, x)
$941B:  AD 23 94   lda $9423
$941E:  C9 06      cmp #$06
$9420:  D0 C1      bne label_93e3
$9422: 
$9422: label_9422
$9422:  60         rts
$9423:!byte $00,$C6,$CA
$9426: 
$9426: label_9426
$9426:  A9 01      lda #$01
$9428:  20 2D 4C   jsr $4c2d
$942B:  20 9B 8C   jsr label_8c9b
$942E:  20 33 98   jsr label_9833
$9431:  A2 05      ldx #$05
$9433: 
$9433: label_9433
$9433:  8A         txa
$9434:  0A         asl
$9435:  0A         asl
$9436:  0A         asl
$9437:  0A         asl
$9438:  A8         tay
$9439:  B9 80 10   lda $1080, y
$943C:  D0 15      bne label_9453
$943E:  B9 83 10   lda $1083, y
$9441:  C9 D3      cmp #$d3
$9443:  D0 0E      bne label_9453
$9445:  20 27 4C   jsr $4c27
$9448:  29 0F      and #$0f
$944A:  D0 07      bne label_9453
$944C:  A9 C7      lda #$c7
$944E:  99 83 10   sta $1083, y
$9451:  E6 80      inc $80
$9453: 
$9453: label_9453
$9453:  CA         dex
$9454:  10 DD      bpl label_9433
$9456:  20 6F 4C   jsr $4c6f
$9459:  20 21 4C   jsr $4c21
$945C:  C9 8C      cmp #$8c
$945E:  D0 07      bne label_9467
$9460:  A5 0C      lda $0c
$9462:  4A         lsr
$9463:  C9 0A      cmp #$0a
$9465:  D0 03      bne label_946a
$9467: 
$9467: label_9467
$9467:  4C 02 95   jmp label_9502
$946A: 
$946A: label_946a
$946A:  20 00 4C   jsr $4c00
$946D:  C1 A0      cmp ( $a0, x)
$946F:  D4 D2      nop $d2, x
$9471:  C1 D0      cmp ( $d0, x)
$9473:  C4 CF      cpy $cf
$9475:  CF D2 A1   dcp $a1d2
$9478:  8D 00 A5   sta $a500
$947B:  0C 48 A9   nop $a948
$947E:  00         brk
$947F:  85 0C      sta $0c
$9481:  20 1B 4C   jsr $4c1b
$9484:  20 87 4C   jsr $4c87
$9487:  68         pla
$9488:  85 0C      sta $0c
$948A:  A5 0A      lda $0a
$948C:  C9 1D      cmp #$1d
$948E:  D0 6C      bne label_94fc
$9490:  20 3A 97   jsr label_973a
$9493:  24 78      bit $78
$9495:  10 1B      bpl label_94b2
$9497:  A9 01      lda #$01
$9499:  85 FC      sta $fc
$949B: 
$949B: label_949b
$949B:  A0 70      ldy #$70
$949D: 
$949D: label_949d
$949D:  A6 FC      ldx $fc
$949F: 
$949F: label_949f
$949F:  CA         dex
$94A0:  D0 FD      bne label_949f
$94A2:  20 9C 4C   jsr $4c9c
$94A5:  A9 60      lda #$60
$94A7: 
$94A7: label_94a7
$94A7:  E9 01      sbc #$01
$94A9:  D0 FC      bne label_94a7
$94AB:  88         dey
$94AC:  D0 EF      bne label_949d
$94AE:  E6 FC      inc $fc
$94B0:  D0 E9      bne label_949b
$94B2: 
$94B2: label_94b2
$94B2:  A9 00      lda #$00
$94B4:  85 FC      sta $fc
$94B6:  A9 44      lda #$44
$94B8:  85 FD      sta $fd
$94BA:  A2 04      ldx #$04
$94BC:  A0 00      ldy #$00
$94BE:  A9 8F      lda #$8f
$94C0: 
$94C0: label_94c0
$94C0:  91 FC      sta ( $fc ), y
$94C2:  C8         iny
$94C3:  D0 FB      bne label_94c0
$94C5:  E6 FD      inc $fd
$94C7:  CA         dex
$94C8:  D0 F6      bne label_94c0
$94CA:  A9 00      lda #$00
$94CC:  85 88      sta $88
$94CE:  A2 1F      ldx #$1f
$94D0: 
$94D0: label_94d0
$94D0:  9D 00 4A   sta $4a00, x
$94D3:  CA         dex
$94D4:  10 FA      bpl label_94d0
$94D6: 
$94D6: label_94d6
$94D6:  A5 88      lda $88
$94D8:  0A         asl
$94D9:  0A         asl
$94DA:  0A         asl
$94DB:  0A         asl
$94DC:  A8         tay
$94DD:  B9 80 10   lda $1080, y
$94E0:  D0 17      bne label_94f9
$94E2:  99 88 10   sta $1088, y
$94E5:  99 89 10   sta $1089, y
$94E8:  A9 C4      lda #$c4
$94EA:  99 83 10   sta $1083, y
$94ED:  A9 0D      lda #$0d
$94EF:  20 4B 4C   jsr $4c4b
$94F2:  20 30 4C   jsr $4c30
$94F5:  E6 88      inc $88
$94F7:  D0 DD      bne label_94d6
$94F9: 
$94F9: label_94f9
$94F9:  4C D8 81   jmp label_81d8
$94FC: 
$94FC: label_94fc
$94FC:  4C 36 8F   jmp label_8f36
$94FF:!byte $4C,$73,$95
$9502: 
$9502: label_9502
$9502:  C9 04      cmp #$04
$9504:  D0 06      bne label_950c
$9506:  20 D8 93   jsr label_93d8
$9509:  4C 27 95   jmp label_9527
$950C: 
$950C: label_950c
$950C:  C9 BC      cmp #$bc
$950E:  F0 04      beq label_9514
$9510:  C9 8F      cmp #$8f
$9512:  D0 13      bne label_9527
$9514: 
$9514: label_9514
$9514:  20 1B 4C   jsr $4c1b
$9517:  20 00 4C   jsr $4c00
$951A:  C2 F5      nop #$f5
$951C:  F2         jam
$951D:  EE E9 EE   inc $eee9
$9520:  E7 A1      isc $a1
$9522:  8D 00 20   sta $2000
$9525:  87 4C      sax $4c
$9527: 
$9527: label_9527
$9527:  20 F1 90   jsr label_90f1
$952A:  A5 2D      lda $2d
$952C:  8D 40 4A   sta $4a40
$952F:  A5 2E      lda $2e
$9531:  8D 60 4A   sta $4a60
$9534:  A5 09      lda $09
$9536:  8D 80 4A   sta $4a80
$9539:  A5 0C      lda $0c
$953B:  C9 12      cmp #$12
$953D:  90 15      bcc label_9554
$953F:  C9 16      cmp #$16
$9541:  B0 11      bcs label_9554
$9543:  AD 5E 8D   lda $8d5e
$9546:  C9 A0      cmp #$a0
$9548:  F0 0A      beq label_9554
$954A:  AD D8 95   lda $95d8
$954D:  49 FF      eor #$ff
$954F:  8D D8 95   sta $95d8
$9552:  10 4E      bpl label_95a2
$9554: 
$9554: label_9554
$9554:  A5 20      lda $20
$9556:  C9 D4      cmp #$d4
$9558:  F0 48      beq label_95a2
$955A:  C9 D1      cmp #$d1
$955C:  D0 0A      bne label_9568
$955E:  AD D9 95   lda $95d9
$9561:  49 FF      eor #$ff
$9563:  8D D9 95   sta $95d9
$9566:  10 3A      bpl label_95a2
$9568: 
$9568: label_9568
$9568:  20 78 97   jsr label_9778
$956B:  20 B2 9B   jsr label_9bb2
$956E:  AD 96 9A   lda $9a96
$9571:  F0 2F      beq label_95a2
$9573:  85 88      sta $88
$9575:  8D 12 80   sta $8012
$9578:  20 1B 4C   jsr $4c1b
$957B:  AD 97 9A   lda $9a97
$957E:  C9 C1      cmp #$c1
$9580:  D0 58      bne label_95da
$9582:  AE 96 9A   ldx $9a96
$9585:  BD E0 4A   lda $4ae0, x
$9588:  C9 FE      cmp #$fe
$958A:  D0 0C      bne label_9598
$958C:  20 06 4C   jsr $4c06
$958F:  AE 96 9A   ldx $9a96
$9592:  20 4E 9A   jsr label_9a4e
$9595:  4C A2 95   jmp label_95a2
$9598: 
$9598: label_9598
$9598:  BD 00 4A   lda $4a00, x
$959B:  C9 70      cmp #$70
$959D:  D0 06      bne label_95a5
$959F:  4C 16 96   jmp label_9616
$95A2: 
$95A2: label_95a2
$95A2:  4C D8 81   jmp label_81d8
$95A5: 
$95A5: label_95a5
$95A5:  20 00 4C   jsr $4c00
$95A8:  8D C1 F4   sta $f4c1
$95AB:  F4 E1      nop $e1, x
$95AD:  E3 EB      isc ( $eb, x)
$95AF:  E5 E4      sbc $e4
$95B1:  A1 8D      lda ( $8d, x)
$95B3:  00         brk
$95B4:  20 21 4C   jsr $4c21
$95B7:  C9 04      cmp #$04
$95B9:  B0 06      bcs label_95c1
$95BB:  A5 0C      lda $0c
$95BD:  C9 1C      cmp #$1c
$95BF:  D0 03      bne label_95c4
$95C1: 
$95C1: label_95c1
$95C1:  4C 52 88   jmp label_8852
$95C4: 
$95C4: label_95c4
$95C4:  18         clc
$95C5:  A9 05      lda #$05
$95C7:  8D 40 4A   sta $4a40
$95CA:  8D 60 4A   sta $4a60
$95CD:  A2 00      ldx #$00
$95CF:  20 18 6C   jsr $6c18
$95D2:  20 87 4C   jsr $4c87
$95D5: 
$95D5: label_95d5
$95D5:  4C A2 95   jmp label_95a2
$95D8:!byte $00,$00
$95DA: 
$95DA: label_95da
$95DA:  AE 96 9A   ldx $9a96
$95DD:  BD E0 4A   lda $4ae0, x
$95E0:  F0 F3      beq label_95d5
$95E2:  BD 40 4A   lda $4a40, x
$95E5:  38         sec
$95E6:  E5 2D      sbc $2d
$95E8:  85 A7      sta $a7
$95EA:  BD 60 4A   lda $4a60, x
$95ED:  38         sec
$95EE:  E5 2E      sbc $2e
$95F0:  85 A8      sta $a8
$95F2:  A9 54      lda #$54
$95F4:  20 86 1D   jsr $1d86
$95F7:  20 00 A7   jsr $a700
$95FA:  E6 80      inc $80
$95FC:  AE 96 9A   ldx $9a96
$95FF:  BD 00 4A   lda $4a00, x
$9602:  49 70      eor #$70
$9604:  D0 0D      bne label_9613
$9606:  BC E0 4A   ldy $4ae0, x
$9609:  C8         iny
$960A:  D0 07      bne label_9613
$960C:  B0 08      bcs label_9616
$960E:  A9 00      lda #$00
$9610:  9D E0 4A   sta $4ae0, x
$9613: 
$9613: label_9613
$9613:  4C 26 94   jmp label_9426
$9616: 
$9616: label_9616
$9616:  20 1E 6C   jsr $6c1e
$9619:  30 F8      bmi label_9613
$961B:  A5 0A      lda $0a
$961D:  C9 12      cmp #$12
$961F:  D0 12      bne label_9633
$9621:  A2 02      ldx #$02
$9623:  20 24 6C   jsr $6c24
$9626:  42         jam
$9627:  4C 41 43   jmp $4341
$962A:!byte $4B,$54,$48,$4F,$52,$4E,$00,$B0
$9632:!byte $EE
$9633: 
$9633: label_9633
$9633:  20 00 4C   jsr $4c00
$9636:  8D A2 D4   sta $d4a2
$9639:  E8         inx
$963A:  EF F5 A0   isc $a0f5
$963D:  E1 F2      sbc ( $f2, x)
$963F:  F4 A0      nop $a0, x
$9641:  F5 EE      sbc $ee, x
$9643:  E4 E5      cpx $e5
$9645:  F2         jam
$9646:  8D E1 F2   sta $f2e1
$9649:  F2         jam
$964A:  E5 F3      sbc $f3
$964C:  F4 A1      nop $a1, x
$964E:  A2 8D      ldx #$8d
$9650:  8D A2 D7   sta $d7a2
$9653:  E9 EC      sbc #$ec
$9655:  F4 A0      nop $a0, x
$9657:  F4 E8      nop $e8, x
$9659:  EF F5 A0   isc $a0f5
$965C:  E3 EF      isc ( $ef, x)
$965E:  ED E5 8D   sbc $8de5
$9661:  F1 F5      sbc ( $f5 ), y
$9663:  E9 E5      sbc #$e5
$9665:  F4 EC      nop $ec, x
$9667:  F9 BF A2   sbc $a2bf, y
$966A:  8D 8D BA   sta $ba8d
$966D:  00         brk
$966E: 
$966E: label_966e
$966E:  20 15 4C   jsr $4c15
$9671:  C9 D9      cmp #$d9
$9673:  F0 30      beq label_96a5
$9675:  C9 CE      cmp #$ce
$9677:  D0 F5      bne label_966e
$9679:  20 00 4C   jsr $4c00
$967C:  CE EF 8D   dec $8def
$967F:  8D A2 D4   sta $d4a2
$9682:  E8         inx
$9683:  E5 EE      sbc $ee
$9685:  A0 E4      ldy #$e4
$9687:  E5 E6      sbc $e6
$9689:  E5 EE      sbc $ee
$968B:  E4 8D      cpx $8d
$968D:  F4 E8      nop $e8, x
$968F:  F9 F3 E5   sbc $e5f3, y
$9692:  EC E6 AC   cpx $ace6
$9695:  A0 F2      ldy #$f2
$9697:  EF E7 F5   isc $f5e7
$969A:  E5 A1      sbc $a1
$969C:  A2 8D      ldx #$8d
$969E:  00         brk
$969F:  20 B0 84   jsr label_84b0
$96A2:  4C A5 95   jmp label_95a5
$96A5: 
$96A5: label_96a5
$96A5:  20 00 4C   jsr $4c00
$96A8:  D9 E5 F3   cmp $f3e5, y
$96AB:  8D 00 20   sta $2000
$96AE:  00         brk
$96AF:  4C 8D D4   jmp $d48d
$96B2:!byte $E8,$E5,$A0,$E7,$F5,$E1,$F2,$E4
$96BA:!byte $8D,$F3,$F4,$F2,$E9,$EB,$E5,$F3
$96C2:!byte $A0,$F4,$E8,$E5,$E5,$8D,$F5,$EE
$96CA:!byte $E3,$EF,$EE,$F3,$E3,$E9,$EF,$F5
$96D2:!byte $F3,$A1,$8D,$00,$20,$3A,$97,$20
$96DA:!byte $00,$4C,$8D,$D4,$E8,$EF,$F5,$A0
$96E2:!byte $E4,$EF,$F3,$F4,$A0,$E1,$F7,$E1
$96EA:!byte $EB,$E5,$EE,$8D,$F4,$EF,$AE,$AE
$96F2:!byte $AE,$8D,$00,$46,$71,$A9,$03,$20
$96FA:!byte $09,$6C,$A9,$04,$85,$0A,$85,$2E
$9702:!byte $85,$03,$A9,$19,$85,$2D,$85,$02
$970A:!byte $A9,$3A,$85,$06,$A9,$2B,$85,$07
$9712:!byte $A5,$1E,$C9,$08,$F0,$08,$A9,$14
$971A:!byte $20,$2D,$4C,$4C,$12,$97,$A9,$00
$9722:!byte $85,$09,$8D,$84,$11,$85,$88,$A2
$972A:!byte $01,$20,$24,$6C,$4D,$41,$49,$4E
$9732:!byte $2E,$54,$57,$4E,$00,$B0,$F0,$00
$973A: 
$973A: label_973a
$973A:  A2 08      ldx #$08
$973C: 
$973C: label_973c
$973C:  BD 00 14   lda $1400, x
$973F:  8D 4D 97   sta $974d
$9742:  BD C0 14   lda $14c0, x
$9745:  8D 4E 97   sta $974e
$9748:  A9 00      lda #$00
$974A:  A0 08      ldy #$08
$974C: 
$974C: label_974c
$974C:  99 FF FF   sta $ffff, y
$974F:  C8         iny
$9750:  C0 B8      cpy #$b8
$9752:  D0 F8      bne label_974c
$9754:  8A         txa
$9755:  4A         lsr
$9756:  4A         lsr
$9757:  4A         lsr
$9758:  A8         tay
$9759:  B9 D0 03   lda $03d0, y
$975C:  85 FC      sta $fc
$975E:  B9 E8 03   lda $03e8, y
$9761:  85 FD      sta $fd
$9763:  A0 01      ldy #$01
$9765: 
$9765: label_9765
$9765:  A9 10      lda #$10
$9767:  91 FC      sta ( $fc ), y
$9769:  C8         iny
$976A:  C0 17      cpy #$17
$976C:  D0 F7      bne label_9765
$976E:  8A         txa
$976F:  18         clc
$9770:  69 08      adc #$08
$9772:  AA         tax
$9773:  E0 B8      cpx #$b8
$9775:  D0 C5      bne label_973c
$9777: 
$9777: label_9777
$9777:  60         rts
$9778: 
$9778: label_9778
$9778:  A2 20      ldx #$20
$977A:  8E 83 97   stx $9783
$977D: 
$977D: label_977d
$977D:  CE 83 97   dec $9783
$9780:  30 F5      bmi label_9777
$9782:  A2 00      ldx #$00
$9784:  BD 00 4A   lda $4a00, x
$9787:  29 FE      and #$fe
$9789:  C9 10      cmp #$10
$978B:  D0 F0      bne label_977d
$978D:  BD 80 4A   lda $4a80, x
$9790:  C5 09      cmp $09
$9792:  D0 E9      bne label_977d
$9794:  20 6C 4C   jsr $4c6c
$9797:  4A         lsr
$9798:  90 E3      bcc label_977d
$979A:  BD 40 4A   lda $4a40, x
$979D:  8D 1B 98   sta $981b
$97A0:  BD 60 4A   lda $4a60, x
$97A3:  8D 1F 98   sta $981f
$97A6:  A2 00      ldx #$00
$97A8:  A0 FF      ldy #$ff
$97AA:  20 16 98   jsr label_9816
$97AD:  F0 CE      beq label_977d
$97AF:  C8         iny
$97B0:  E8         inx
$97B1:  20 16 98   jsr label_9816
$97B4:  F0 C7      beq label_977d
$97B6:  C8         iny
$97B7:  CA         dex
$97B8:  20 16 98   jsr label_9816
$97BB:  F0 C0      beq label_977d
$97BD:  88         dey
$97BE:  CA         dex
$97BF:  20 16 98   jsr label_9816
$97C2:  F0 B9      beq label_977d
$97C4:  20 6C 4C   jsr $4c6c
$97C7:  29 03      and #$03
$97C9:  AA         tax
$97CA:  BC 12 98   ldy $9812, x
$97CD:  BD 0E 98   lda $980e, x
$97D0:  AA         tax
$97D1:  20 16 98   jsr label_9816
$97D4:  AA         tax
$97D5:  A5 A9      lda $a9
$97D7:  C9 20      cmp #$20
$97D9:  B0 A2      bcs label_977d
$97DB:  A5 AA      lda $aa
$97DD:  C9 20      cmp #$20
$97DF:  B0 9C      bcs label_977d
$97E1:  A9 10      lda #$10
$97E3:  20 78 4C   jsr $4c78
$97E6:  90 95      bcc label_977d
$97E8:  20 42 4C   jsr $4c42
$97EB:  D0 90      bne label_977d
$97ED:  AE 83 97   ldx $9783
$97F0:  A9 11      lda #$11
$97F2:  A4 A7      ldy $a7
$97F4:  F0 0A      beq label_9800
$97F6:  30 02      bmi label_97fa
$97F8:  A9 10      lda #$10
$97FA: 
$97FA: label_97fa
$97FA:  9D 00 4A   sta $4a00, x
$97FD:  9D 20 4A   sta $4a20, x
$9800: 
$9800: label_9800
$9800:  A5 A9      lda $a9
$9802:  9D 40 4A   sta $4a40, x
$9805:  A5 AA      lda $aa
$9807:  9D 60 4A   sta $4a60, x
$980A:  4C 7D 97   jmp label_977d
$980D:!byte $00,$01,$00,$FF,$00,$00,$01,$00
$9815:!byte $FF
$9816: 
$9816: label_9816
$9816:  86 A7      stx $a7
$9818:  84 A8      sty $a8
$981A:  A9 00      lda #$00
$981C:  85 A9      sta $a9
$981E:  A9 00      lda #$00
$9820:  85 AA      sta $aa
$9822:  20 3C 4C   jsr $4c3c
$9825:  20 1E 4C   jsr $4c1e
$9828:  A6 A7      ldx $a7
$982A:  A4 A8      ldy $a8
$982C:  C9 A2      cmp #$a2
$982E:  F0 02      beq label_9832
$9830:  C9 43      cmp #$43
$9832: 
$9832: label_9832
$9832:  60         rts
$9833: 
$9833: label_9833
$9833:  A5 80      lda $80
$9835:  F0 07      beq label_983e
$9837:  20 30 4C   jsr $4c30
$983A:  A9 00      lda #$00
$983C:  85 80      sta $80
$983E: 
$983E: label_983e
$983E:  60         rts
$983F:!byte $A0,$31,$20,$56,$98,$B0,$35,$A0
$9847:!byte $47,$20,$56,$98,$B0,$2E,$A0,$3D
$984F:!byte $20,$56,$98,$B0,$27,$A0,$3B,$B9
$9857:!byte $00,$48,$F0,$06,$AA,$A9,$1C,$4C
$985F:!byte $78,$4C,$B9,$00,$49,$C9,$1B,$F0
$9867:!byte $13,$29,$FC,$C9,$1C,$F0,$0D,$C9
$986F:!byte $24,$F0,$09,$C9,$10,$F0,$05,$C9
$9877:!byte $28,$F0,$01,$18,$60,$20,$39,$4C
$987F:!byte $20,$42,$4C,$F0,$3C,$85,$BE,$A5
$9887:!byte $0C,$C9,$30,$B0,$08,$C9,$28,$B0
$988F:!byte $24,$C9,$20,$B0,$2F,$A5,$BE,$C9
$9897:!byte $1E,$F0,$26,$C9,$1F,$F0,$22,$C9
$989F:!byte $2C,$B0,$21,$C9,$24,$B0,$1A,$C9
$98A7:!byte $1B,$F0,$16,$C9,$12,$B0,$15,$C9
$98AF:!byte $10,$B0,$0E,$90,$0F,$A5,$BE,$C9
$98B7:!byte $28,$B0,$09,$C9,$24,$B0,$02,$90
$98BF:!byte $03,$A9,$00,$60,$A9,$FF,$60,$AA
$98C7:!byte $A5,$0C,$20,$78,$4C,$A9,$FF,$69
$98CF:!byte $00,$60
$98D1: 
$98D1: label_98d1
$98D1:  20 9F 4C   jsr $4c9f
$98D4:  A9 00      lda #$00
$98D6:  85 13      sta $13
$98D8:  A6 0A      ldx $0a
$98DA:  BD B7 81   lda $81b7, x
$98DD:  38         sec
$98DE:  E9 01      sbc #$01
$98E0:  29 0F      and #$0f
$98E2:  18         clc
$98E3:  65 09      adc $09
$98E5:  48         pha
$98E6:  4A         lsr
$98E7:  4A         lsr
$98E8:  18         clc
$98E9:  69 20      adc #$20
$98EB:  85 B0      sta $b0
$98ED:  68         pla
$98EE:  0A         asl
$98EF:  0A         asl
$98F0:  29 0F      and #$0f
$98F2:  85 B1      sta $b1
$98F4:  A9 44      lda #$44
$98F6:  A4 B0      ldy $b0
$98F8:  A6 B1      ldx $b1
$98FA:  20 00 6C   jsr $6c00
$98FD:  E6 B1      inc $b1
$98FF:  A9 45      lda #$45
$9901:  A4 B0      ldy $b0
$9903:  A6 B1      ldx $b1
$9905:  20 00 6C   jsr $6c00
$9908:  E6 B1      inc $b1
$990A:  A9 46      lda #$46
$990C:  A4 B0      ldy $b0
$990E:  A6 B1      ldx $b1
$9910:  20 00 6C   jsr $6c00
$9913:  E6 B1      inc $b1
$9915:  A9 47      lda #$47
$9917:  A4 B0      ldy $b0
$9919:  A6 B1      ldx $b1
$991B:  20 00 6C   jsr $6c00
$991E:  A9 69      lda #$69
$9920:  8D 7B 9A   sta $9a7b
$9923:  20 A2 4C   jsr $4ca2
$9926:  20 33 4C   jsr $4c33
$9929:  20 20 8D   jsr label_8d20
$992C:  24 32      bit $32
$992E:  30 2C      bmi label_995c
$9930:  A9 00      lda #$00
$9932:  85 FC      sta $fc
$9934:  A9 44      lda #$44
$9936:  85 FD      sta $fd
$9938:  A0 00      ldy #$00
$993A: 
$993A: label_993a
$993A:  B1 FC      lda ( $fc ), y
$993C:  A2 2B      ldx #$2b
$993E:  C9 2E      cmp #$2e
$9940:  F0 05      beq label_9947
$9942:  E8         inx
$9943:  C9 2D      cmp #$2d
$9945:  D0 0A      bne label_9951
$9947: 
$9947: label_9947
$9947:  20 6F 9A   jsr label_9a6f
$994A:  29 07      and #$07
$994C:  F0 03      beq label_9951
$994E:  8A         txa
$994F:  91 FC      sta ( $fc ), y
$9951: 
$9951: label_9951
$9951:  C8         iny
$9952:  D0 E6      bne label_993a
$9954:  E6 FD      inc $fd
$9956:  A5 FD      lda $fd
$9958:  C9 48      cmp #$48
$995A:  D0 DE      bne label_993a
$995C: 
$995C: label_995c
$995C:  60         rts
$995D: 
$995D: label_995d
$995D:  A9 00      lda #$00
$995F:  85 B3      sta $b3
$9961:  A6 0A      ldx $0a
$9963:  CA         dex
$9964:  8A         txa
$9965:  29 07      and #$07
$9967:  09 F8      ora #$f8
$9969:  85 B2      sta $b2
$996B:  A5 B2      lda $b2
$996D:  A6 B3      ldx $b3
$996F:  20 30 6C   jsr $6c30
$9972:  A2 00      ldx #$00
$9974: 
$9974: label_9974
$9974:  BD 00 7E   lda $7e00, x
$9977:  9D 00 4A   sta $4a00, x
$997A:  BD 00 7F   lda $7f00, x
$997D:  9D 00 4B   sta $4b00, x
$9980:  E8         inx
$9981:  D0 F1      bne label_9974
$9983:  4C 33 4C   jmp $4c33
$9986: 
$9986: label_9986
$9986:  A2 FF      ldx #$ff
$9988:  A5 2E      lda $2e
$998A:  C9 04      cmp #$04
$998C:  F0 0C      beq label_999a
$998E:  A2 02      ldx #$02
$9990: 
$9990: label_9990
$9990:  BC 89 11   ldy $1189, x
$9993:  C4 0A      cpy $0a
$9995:  F0 03      beq label_999a
$9997:  CA         dex
$9998:  10 F6      bpl label_9990
$999A: 
$999A: label_999a
$999A:  86 32      stx $32
$999C:  60         rts
$999D: 
$999D: label_999d
$999D:  24 32      bit $32
$999F:  30 56      bmi label_99f7
$99A1:  A2 1F      ldx #$1f
$99A3: 
$99A3: label_99a3
$99A3:  BD 00 4A   lda $4a00, x
$99A6:  C9 FC      cmp #$fc
$99A8:  F0 4D      beq label_99f7
$99AA:  CA         dex
$99AB:  10 F6      bpl label_99a3
$99AD:  20 48 4C   jsr $4c48
$99B0:  8E E5 99   stx $99e5
$99B3:  A9 0F      lda #$0f
$99B5:  9D 40 4A   sta $4a40, x
$99B8:  A4 0A      ldy $0a
$99BA:  B9 F7 99   lda label_99f7, y
$99BD:  9D 60 4A   sta $4a60, x
$99C0:  8D F0 99   sta $99f0
$99C3:  A9 FC      lda #$fc
$99C5:  9D 00 4A   sta $4a00, x
$99C8:  9D 20 4A   sta $4a20, x
$99CB:  A9 00      lda #$00
$99CD:  9D 00 42   sta $4200, x
$99D0:  9D C0 4A   sta $4ac0, x
$99D3:  9D E0 4A   sta $4ae0, x
$99D6:  9D 80 4A   sta $4a80, x
$99D9:  9D 00 4B   sta $4b00, x
$99DC:  9D 20 4B   sta $4b20, x
$99DF:  9D A0 4A   sta $4aa0, x
$99E2:  A0 03      ldy #$03
$99E4: 
$99E4: label_99e4
$99E4:  A9 00      lda #$00
$99E6:  19 99 9A   ora $9a99, y
$99E9:  AA         tax
$99EA:  A9 CF      lda #$cf
$99EC:  9D 40 4B   sta $4b40, x
$99EF:  A9 00      lda #$00
$99F1:  9D A0 4B   sta $4ba0, x
$99F4:  88         dey
$99F5:  10 ED      bpl label_99e4
$99F7: 
$99F7: label_99f7
$99F7:  60         rts
$99F8:!byte $04,$09,$0F,$08,$11,$0A,$0B,$0A
$9A00: 
$9A00: label_9a00
$9A00:  A6 32      ldx $32
$9A02:  30 08      bmi label_9a0c
$9A04:  F0 07      beq label_9a0d
$9A06:  CA         dex
$9A07:  F0 05      beq label_9a0e
$9A09:  CA         dex
$9A0A:  F0 15      beq label_9a21
$9A0C: 
$9A0C: label_9a0c
$9A0C:  60         rts
$9A0D: 
$9A0D: label_9a0d
$9A0D:  60         rts
$9A0E: 
$9A0E: label_9a0e
$9A0E:  A0 1F      ldy #$1f
$9A10: 
$9A10: label_9a10
$9A10:  20 34 9A   jsr label_9a34
$9A13:  90 08      bcc label_9a1d
$9A15:  20 43 84   jsr label_8443
$9A18:  A9 FE      lda #$fe
$9A1A:  99 E0 4A   sta $4ae0, y
$9A1D: 
$9A1D: label_9a1d
$9A1D:  88         dey
$9A1E:  10 F0      bpl label_9a10
$9A20:  60         rts
$9A21: 
$9A21: label_9a21
$9A21:  A0 1F      ldy #$1f
$9A23: 
$9A23: label_9a23
$9A23:  20 34 9A   jsr label_9a34
$9A26:  90 08      bcc label_9a30
$9A28:  20 75 84   jsr label_8475
$9A2B:  A9 FD      lda #$fd
$9A2D:  99 E0 4A   sta $4ae0, y
$9A30: 
$9A30: label_9a30
$9A30:  88         dey
$9A31:  10 F0      bpl label_9a23
$9A33:  60         rts
$9A34: 
$9A34: label_9a34
$9A34:  B9 00 4B   lda $4b00, y
$9A37:  19 20 4B   ora $4b20, y
$9A3A:  F0 10      beq label_9a4c
$9A3C:  B9 00 4A   lda $4a00, y
$9A3F:  C9 40      cmp #$40
$9A41:  90 0A      bcc label_9a4d
$9A43:  C9 74      cmp #$74
$9A45:  B0 05      bcs label_9a4c
$9A47:  20 27 4C   jsr $4c27
$9A4A:  0A         asl
$9A4B:  60         rts
$9A4C: 
$9A4C: label_9a4c
$9A4C:  18         clc
$9A4D: 
$9A4D: label_9a4d
$9A4D:  60         rts
$9A4E: 
$9A4E: label_9a4e
$9A4E:  8A         txa
$9A4F:  48         pha
$9A50:  20 00 4C   jsr $4c00
$9A53:  A2 C2      ldx #$c2
$9A55:  E5 E7      sbc $e7
$9A57:  EF EE E5   isc $e5ee
$9A5A:  AC 8D F6   ldy $f68d
$9A5D:  E5 F2      sbc $f2
$9A5F:  ED E9 EE   sbc $eee9
$9A62:  A1 A2      lda ( $a2, x)
$9A64:  8D 00 20   sta $2000
$9A67:  87 4C      sax $4c
$9A69:  68         pla
$9A6A:  A8         tay
$9A6B:  20 75 84   jsr label_8475
$9A6E:  60         rts
$9A6F: 
$9A6F: label_9a6f
$9A6F:  AD 7B 9A   lda $9a7b
$9A72:  4A         lsr
$9A73:  90 02      bcc label_9a77
$9A75:  49 B8      eor #$b8
$9A77: 
$9A77: label_9a77
$9A77:  8D 7B 9A   sta $9a7b
$9A7A:  60         rts
$9A7B:!byte $00,$00,$00,$00,$00,$00,$01,$03
$9A83:!byte $05,$06,$07,$09,$11,$12,$13,$15
$9A8B:!byte $17,$18,$19,$21,$23,$00,$00,$00
$9A93:!byte $00,$00,$00,$00,$00,$00,$00,$20
$9A9B:!byte $40,$20,$00,$00,$00,$00,$00,$00
$9AA3:!byte $00,$00,$00,$00,$00,$00,$00,$00
$9AAB:!byte $00,$00,$00,$00,$00,$00,$00,$00
$9AB3:!byte $00,$00,$00,$00,$00,$00,$00,$00
$9ABB:!byte $00,$00
$9ABD: 
$9ABD: label_9abd
$9ABD:  BD 40 4B   lda $4b40, x
$9AC0:  09 E0      ora #$e0
$9AC2:  9D 40 4B   sta $4b40, x
$9AC5:  60         rts
$9AC6: 
$9AC6: label_9ac6
$9AC6:  98         tya
$9AC7:  18         clc
$9AC8:  6D 99 9A   adc $9a99
$9ACB:  AA         tax
$9ACC:  20 BD 9A   jsr label_9abd
$9ACF:  98         tya
$9AD0:  18         clc
$9AD1:  6D 9A 9A   adc $9a9a
$9AD4:  AA         tax
$9AD5:  20 BD 9A   jsr label_9abd
$9AD8:  98         tya
$9AD9:  18         clc
$9ADA:  6D 9B 9A   adc $9a9b
$9ADD:  AA         tax
$9ADE:  20 BD 9A   jsr label_9abd
$9AE1:  98         tya
$9AE2:  18         clc
$9AE3:  6D 9C 9A   adc $9a9c
$9AE6:  AA         tax
$9AE7:  4C BD 9A   jmp label_9abd
$9AEA: 
$9AEA: label_9aea
$9AEA:  A2 1F      ldx #$1f
$9AEC: 
$9AEC: label_9aec
$9AEC:  BD 00 4A   lda $4a00, x
$9AEF:  F0 1F      beq label_9b10
$9AF1:  C9 40      cmp #$40
$9AF3:  90 1B      bcc label_9b10
$9AF5:  20 22 9B   jsr label_9b22
$9AF8:  AD 90 9A   lda $9a90
$9AFB:  9D 40 4A   sta $4a40, x
$9AFE:  AD 91 9A   lda $9a91
$9B01:  9D 60 4A   sta $4a60, x
$9B04:  AD 93 9A   lda $9a93
$9B07:  9D A0 4A   sta $4aa0, x
$9B0A:  AD 92 9A   lda $9a92
$9B0D:  9D 80 4A   sta $4a80, x
$9B10: 
$9B10: label_9b10
$9B10:  CA         dex
$9B11:  D0 D9      bne label_9aec
$9B13: 
$9B13: label_9b13
$9B13:  38         sec
$9B14:  A2 70      ldx #$70
$9B16: 
$9B16: label_9b16
$9B16:  A9 FF      lda #$ff
$9B18:  9D 00 7D   sta $7d00, x
$9B1B:  8A         txa
$9B1C:  E9 10      sbc #$10
$9B1E:  AA         tax
$9B1F:  B0 F5      bcs label_9b16
$9B21:  60         rts
$9B22: 
$9B22: label_9b22
$9B22:  BD 00 4B   lda $4b00, x
$9B25:  48         pha
$9B26:  4A         lsr
$9B27:  4A         lsr
$9B28:  4A         lsr
$9B29:  4A         lsr
$9B2A:  A8         tay
$9B2B:  B9 80 9A   lda $9a80, y
$9B2E:  8D 7C 9A   sta $9a7c
$9B31:  68         pla
$9B32:  29 0F      and #$0f
$9B34:  A8         tay
$9B35:  B9 80 9A   lda $9a80, y
$9B38:  8D 7D 9A   sta $9a7d
$9B3B:  BD 20 4B   lda $4b20, x
$9B3E:  48         pha
$9B3F:  4A         lsr
$9B40:  4A         lsr
$9B41:  4A         lsr
$9B42:  4A         lsr
$9B43:  A8         tay
$9B44:  B9 80 9A   lda $9a80, y
$9B47:  8D 7E 9A   sta $9a7e
$9B4A:  68         pla
$9B4B:  29 0F      and #$0f
$9B4D:  A8         tay
$9B4E:  B9 80 9A   lda $9a80, y
$9B51:  8D 7F 9A   sta $9a7f
$9B54:  A0 01      ldy #$01
$9B56:  AD 7C 9A   lda $9a7c
$9B59: 
$9B59: label_9b59
$9B59:  D9 7C 9A   cmp $9a7c, y
$9B5C:  F0 02      beq label_9b60
$9B5E:  B0 08      bcs label_9b68
$9B60: 
$9B60: label_9b60
$9B60:  B9 7C 9A   lda $9a7c, y
$9B63:  C8         iny
$9B64:  C0 04      cpy #$04
$9B66:  90 F1      bcc label_9b59
$9B68: 
$9B68: label_9b68
$9B68:  88         dey
$9B69:  98         tya
$9B6A:  29 03      and #$03
$9B6C:  A8         tay
$9B6D:  8C B1 9B   sty $9bb1
$9B70: 
$9B70: label_9b70
$9B70:  A5 1E      lda $1e
$9B72:  D9 7C 9A   cmp $9a7c, y
$9B75:  B0 0A      bcs label_9b81
$9B77:  88         dey
$9B78:  98         tya
$9B79:  29 03      and #$03
$9B7B:  A8         tay
$9B7C:  CC B1 9B   cpy $9bb1
$9B7F:  D0 EF      bne label_9b70
$9B81: 
$9B81: label_9b81
$9B81:  8C 98 9A   sty $9a98
$9B84:  B9 7C 9A   lda $9a7c, y
$9B87:  8D 93 9A   sta $9a93
$9B8A:  18         clc
$9B8B:  8A         txa
$9B8C:  79 99 9A   adc $9a99, y
$9B8F:  A8         tay
$9B90:  B9 40 4B   lda $4b40, y
$9B93:  29 1F      and #$1f
$9B95:  8D 90 9A   sta $9a90
$9B98:  B9 A0 4B   lda $4ba0, y
$9B9B:  48         pha
$9B9C:  29 1F      and #$1f
$9B9E:  8D 91 9A   sta $9a91
$9BA1:  68         pla
$9BA2:  4A         lsr
$9BA3:  4A         lsr
$9BA4:  4A         lsr
$9BA5:  4A         lsr
$9BA6:  4A         lsr
$9BA7:  C9 07      cmp #$07
$9BA9:  90 02      bcc label_9bad
$9BAB:  A9 FF      lda #$ff
$9BAD: 
$9BAD: label_9bad
$9BAD:  8D 92 9A   sta $9a92
$9BB0:  60         rts
$9BB1:!byte $00
$9BB2: 
$9BB2: label_9bb2
$9BB2:  A5 0B      lda $0b
$9BB4:  10 06      bpl label_9bbc
$9BB6:  A9 00      lda #$00
$9BB8:  8D 97 9A   sta $9a97
$9BBB:  60         rts
$9BBC: 
$9BBC: label_9bbc
$9BBC:  A9 00      lda #$00
$9BBE:  8D 80 9F   sta $9f80
$9BC1:  8D 81 9F   sta $9f81
$9BC4:  8D 83 9F   sta $9f83
$9BC7:  8D 96 9A   sta $9a96
$9BCA:  A2 1F      ldx #$1f
$9BCC: 
$9BCC: label_9bcc
$9BCC:  BD 00 4A   lda $4a00, x
$9BCF:  C9 40      cmp #$40
$9BD1:  90 3F      bcc label_9c12
$9BD3:  A9 00      lda #$00
$9BD5:  8D 01 A2   sta $a201
$9BD8:  20 22 9B   jsr label_9b22
$9BDB:  BD A0 4A   lda $4aa0, x
$9BDE:  CD 93 9A   cmp $9a93
$9BE1:  D0 03      bne label_9be6
$9BE3:  4C 30 9E   jmp label_9e30
$9BE6: 
$9BE6: label_9be6
$9BE6:  A4 09      ldy $09
$9BE8:  C8         iny
$9BE9:  84 4E      sty $4e
$9BEB:  AC 92 9A   ldy $9a92
$9BEE:  C8         iny
$9BEF:  BD 80 4A   lda $4a80, x
$9BF2:  C5 09      cmp $09
$9BF4:  F0 6D      beq label_9c63
$9BF6:  C4 4E      cpy $4e
$9BF8:  F0 1B      beq label_9c15
$9BFA: 
$9BFA: label_9bfa
$9BFA:  AD 90 9A   lda $9a90
$9BFD:  9D 40 4A   sta $4a40, x
$9C00:  AD 91 9A   lda $9a91
$9C03:  9D 60 4A   sta $4a60, x
$9C06:  AD 92 9A   lda $9a92
$9C09:  9D 80 4A   sta $4a80, x
$9C0C:  AD 93 9A   lda $9a93
$9C0F:  8D A0 4A   sta $4aa0
$9C12: 
$9C12: label_9c12
$9C12:  4C 71 9F   jmp label_9f71
$9C15: 
$9C15: label_9c15
$9C15:  AD 81 9F   lda $9f81
$9C18:  D0 F8      bne label_9c12
$9C1A:  EE 81 9F   inc $9f81
$9C1D:  BC 80 4A   ldy $4a80, x
$9C20:  C8         iny
$9C21:  C4 4E      cpy $4e
$9C23:  A0 C8      ldy #$c8
$9C25:  B0 01      bcs label_9c28
$9C27:  C8         iny
$9C28: 
$9C28: label_9c28
$9C28:  8C 01 A2   sty $a201
$9C2B:  AD 90 9A   lda $9a90
$9C2E:  8D FA A1   sta $a1fa
$9C31:  AD 91 9A   lda $9a91
$9C34:  8D F9 A1   sta $a1f9
$9C37:  20 02 A2   jsr label_a202
$9C3A:  B0 24      bcs label_9c60
$9C3C:  AD FC A1   lda $a1fc
$9C3F:  85 A9      sta $a9
$9C41:  AD FB A1   lda $a1fb
$9C44:  85 AA      sta $aa
$9C46:  20 52 A1   jsr label_a152
$9C49:  D0 15      bne label_9c60
$9C4B:  AD FC A1   lda $a1fc
$9C4E:  9D 40 4A   sta $4a40, x
$9C51:  AD FB A1   lda $a1fb
$9C54:  9D 60 4A   sta $4a60, x
$9C57:  AD 92 9A   lda $9a92
$9C5A:  9D 80 4A   sta $4a80, x
$9C5D:  4C 71 9F   jmp label_9f71
$9C60: 
$9C60: label_9c60
$9C60:  4C 1F 9E   jmp label_9e1f
$9C63: 
$9C63: label_9c63
$9C63:  C4 4E      cpy $4e
$9C65:  F0 23      beq label_9c8a
$9C67:  A0 C8      ldy #$c8
$9C69:  B0 01      bcs label_9c6c
$9C6B:  C8         iny
$9C6C: 
$9C6C: label_9c6c
$9C6C:  8C 01 A2   sty $a201
$9C6F:  8E 82 9F   stx $9f82
$9C72:  BD 40 4A   lda $4a40, x
$9C75:  85 A9      sta $a9
$9C77:  BD 60 4A   lda $4a60, x
$9C7A:  85 AA      sta $aa
$9C7C:  20 1E 4C   jsr $4c1e
$9C7F:  AE 82 9F   ldx $9f82
$9C82:  CD 01 A2   cmp $a201
$9C85:  D0 03      bne label_9c8a
$9C87:  4C FA 9B   jmp label_9bfa
$9C8A: 
$9C8A: label_9c8a
$9C8A:  A9 00      lda #$00
$9C8C: 
$9C8C: label_9c8c
$9C8C:  A8         tay
$9C8D:  8A         txa
$9C8E:  D9 00 7D   cmp $7d00, y
$9C91:  F0 0B      beq label_9c9e
$9C93:  98         tya
$9C94:  18         clc
$9C95:  69 10      adc #$10
$9C97:  C9 80      cmp #$80
$9C99:  90 F1      bcc label_9c8c
$9C9B:  4C 5E 9D   jmp label_9d5e
$9C9E: 
$9C9E: label_9c9e
$9C9E:  8C 7E 9F   sty $9f7e
$9CA1: 
$9CA1: label_9ca1
$9CA1:  C8         iny
$9CA2:  B9 00 7D   lda $7d00, y
$9CA5:  F0 FA      beq label_9ca1
$9CA7:  8C 7F 9F   sty $9f7f
$9CAA:  48         pha
$9CAB:  29 03      and #$03
$9CAD:  A8         tay
$9CAE:  18         clc
$9CAF:  BD 40 4A   lda $4a40, x
$9CB2:  79 38 A4   adc $a438, y
$9CB5:  85 A9      sta $a9
$9CB7:  18         clc
$9CB8:  BD 60 4A   lda $4a60, x
$9CBB:  79 34 A4   adc $a434, y
$9CBE:  85 AA      sta $aa
$9CC0:  20 52 A1   jsr label_a152
$9CC3:  D0 25      bne label_9cea
$9CC5:  A5 09      lda $09
$9CC7:  CD 92 9A   cmp $9a92
$9CCA:  D0 0E      bne label_9cda
$9CCC:  A5 AA      lda $aa
$9CCE:  CD 91 9A   cmp $9a91
$9CD1:  D0 07      bne label_9cda
$9CD3:  A5 A9      lda $a9
$9CD5:  CD 90 9A   cmp $9a90
$9CD8:  F0 24      beq label_9cfe
$9CDA: 
$9CDA: label_9cda
$9CDA:  8E 82 9F   stx $9f82
$9CDD:  20 1E 4C   jsr $4c1e
$9CE0:  20 85 9F   jsr label_9f85
$9CE3:  AE 82 9F   ldx $9f82
$9CE6:  29 7F      and #$7f
$9CE8:  F0 14      beq label_9cfe
$9CEA: 
$9CEA: label_9cea
$9CEA:  68         pla
$9CEB:  FE 9D 9A   inc $9a9d, x
$9CEE:  20 6C 4C   jsr $4c6c
$9CF1:  29 03      and #$03
$9CF3:  18         clc
$9CF4:  69 03      adc #$03
$9CF6:  DD 9D 9A   cmp $9a9d, x
$9CF9:  90 58      bcc label_9d53
$9CFB: 
$9CFB: label_9cfb
$9CFB:  4C 71 9F   jmp label_9f71
$9CFE: 
$9CFE: label_9cfe
$9CFE:  68         pla
$9CFF:  AC 7F 9F   ldy $9f7f
$9D02:  38         sec
$9D03:  E9 04      sbc #$04
$9D05:  99 00 7D   sta $7d00, y
$9D08:  C9 04      cmp #$04
$9D0A:  B0 0A      bcs label_9d16
$9D0C:  48         pha
$9D0D:  A9 00      lda #$00
$9D0F:  99 00 7D   sta $7d00, y
$9D12:  68         pla
$9D13:  EE 7F 9F   inc $9f7f
$9D16: 
$9D16: label_9d16
$9D16:  48         pha
$9D17:  A9 00      lda #$00
$9D19:  9D 9D 9A   sta $9a9d, x
$9D1C:  A5 AA      lda $aa
$9D1E:  9D 60 4A   sta $4a60, x
$9D21:  A8         tay
$9D22:  A5 A9      lda $a9
$9D24:  9D 40 4A   sta $4a40, x
$9D27:  CD 90 9A   cmp $9a90
$9D2A:  D0 12      bne label_9d3e
$9D2C:  CC 91 9A   cpy $9a91
$9D2F:  D0 0D      bne label_9d3e
$9D31:  AC 92 9A   ldy $9a92
$9D34:  C4 09      cpy $09
$9D36:  D0 06      bne label_9d3e
$9D38:  AD 93 9A   lda $9a93
$9D3B:  9D A0 4A   sta $4aa0, x
$9D3E: 
$9D3E: label_9d3e
$9D3E:  68         pla
$9D3F:  C9 04      cmp #$04
$9D41:  B0 B8      bcs label_9cfb
$9D43:  AC 7F 9F   ldy $9f7f
$9D46:  B9 00 7D   lda $7d00, y
$9D49:  F0 08      beq label_9d53
$9D4B:  98         tya
$9D4C:  29 F0      and #$f0
$9D4E:  CD 7E 9F   cmp $9f7e
$9D51:  F0 08      beq label_9d5b
$9D53: 
$9D53: label_9d53
$9D53:  AC 7E 9F   ldy $9f7e
$9D56:  A9 FF      lda #$ff
$9D58:  99 00 7D   sta $7d00, y
$9D5B: 
$9D5B: label_9d5b
$9D5B:  4C 71 9F   jmp label_9f71
$9D5E: 
$9D5E: label_9d5e
$9D5E:  AD 80 9F   lda $9f80
$9D61:  F0 03      beq label_9d66
$9D63:  4C 2D 9E   jmp label_9e2d
$9D66: 
$9D66: label_9d66
$9D66:  BD 40 4A   lda $4a40, x
$9D69:  CD 90 9A   cmp $9a90
$9D6C:  D0 19      bne label_9d87
$9D6E:  BD 60 4A   lda $4a60, x
$9D71:  CD 91 9A   cmp $9a91
$9D74:  D0 11      bne label_9d87
$9D76:  BD 80 4A   lda $4a80, x
$9D79:  CD 92 9A   cmp $9a92
$9D7C:  D0 09      bne label_9d87
$9D7E:  AD 93 9A   lda $9a93
$9D81:  9D A0 4A   sta $4aa0, x
$9D84:  4C 71 9F   jmp label_9f71
$9D87: 
$9D87: label_9d87
$9D87:  BD 9D 9A   lda $9a9d, x
$9D8A:  10 0A      bpl label_9d96
$9D8C:  20 6C 4C   jsr $4c6c
$9D8F:  29 03      and #$03
$9D91:  F0 03      beq label_9d96
$9D93:  4C 7D 9E   jmp label_9e7d
$9D96: 
$9D96: label_9d96
$9D96:  A9 00      lda #$00
$9D98: 
$9D98: label_9d98
$9D98:  A8         tay
$9D99:  B9 00 7D   lda $7d00, y
$9D9C:  C9 FF      cmp #$ff
$9D9E:  F0 0B      beq label_9dab
$9DA0:  98         tya
$9DA1:  18         clc
$9DA2:  69 10      adc #$10
$9DA4:  C9 90      cmp #$90
$9DA6:  90 F0      bcc label_9d98
$9DA8:  4C 2D 9E   jmp label_9e2d
$9DAB: 
$9DAB: label_9dab
$9DAB:  18         clc
$9DAC:  98         tya
$9DAD:  69 00      adc #$00
$9DAF:  85 4E      sta $4e
$9DB1:  A9 00      lda #$00
$9DB3:  69 7D      adc #$7d
$9DB5:  85 4F      sta $4f
$9DB7:  AD 01 A2   lda $a201
$9DBA:  F0 32      beq label_9dee
$9DBC:  AD 81 9F   lda $9f81
$9DBF:  D0 9A      bne label_9d5b
$9DC1:  EE 81 9F   inc $9f81
$9DC4:  AC 98 9A   ldy $9a98
$9DC7:  88         dey
$9DC8:  98         tya
$9DC9:  29 03      and #$03
$9DCB:  A8         tay
$9DCC:  8A         txa
$9DCD:  18         clc
$9DCE:  79 99 9A   adc $9a99, y
$9DD1:  A8         tay
$9DD2:  B9 40 4B   lda $4b40, y
$9DD5:  29 1F      and #$1f
$9DD7:  8D FA A1   sta $a1fa
$9DDA:  B9 A0 4B   lda $4ba0, y
$9DDD:  29 1F      and #$1f
$9DDF:  8D F9 A1   sta $a1f9
$9DE2:  20 02 A2   jsr label_a202
$9DE5:  B0 38      bcs label_9e1f
$9DE7:  A9 00      lda #$00
$9DE9:  8D 01 A2   sta $a201
$9DEC:  F0 0C      beq label_9dfa
$9DEE: 
$9DEE: label_9dee
$9DEE:  AD 90 9A   lda $9a90
$9DF1:  8D FC A1   sta $a1fc
$9DF4:  AD 91 9A   lda $9a91
$9DF7:  8D FB A1   sta $a1fb
$9DFA: 
$9DFA: label_9dfa
$9DFA:  BD 40 4A   lda $4a40, x
$9DFD:  8D FA A1   sta $a1fa
$9E00:  BD 60 4A   lda $4a60, x
$9E03:  8D F9 A1   sta $a1f9
$9E06:  EE 80 9F   inc $9f80
$9E09:  8A         txa
$9E0A:  48         pha
$9E0B:  20 25 A2   jsr label_a225
$9E0E:  68         pla
$9E0F:  AA         tax
$9E10:  B0 0D      bcs label_9e1f
$9E12:  A0 00      ldy #$00
$9E14:  8A         txa
$9E15:  91 4E      sta ( $4e ), y
$9E17:  A9 00      lda #$00
$9E19:  9D 9D 9A   sta $9a9d, x
$9E1C:  4C 71 9F   jmp label_9f71
$9E1F: 
$9E1F: label_9e1f
$9E1F:  EE 83 9F   inc $9f83
$9E22:  8E 84 9F   stx $9f84
$9E25:  A9 80      lda #$80
$9E27:  9D 9D 9A   sta $9a9d, x
$9E2A:  4C 71 9F   jmp label_9f71
$9E2D: 
$9E2D: label_9e2d
$9E2D:  4C 71 9F   jmp label_9f71
$9E30: 
$9E30: label_9e30
$9E30:  AC 98 9A   ldy $9a98
$9E33:  BD 80 4A   lda $4a80, x
$9E36:  C5 09      cmp $09
$9E38:  D0 35      bne label_9e6f
$9E3A:  8A         txa
$9E3B:  18         clc
$9E3C:  79 99 9A   adc $9a99, y
$9E3F:  A8         tay
$9E40:  8C FC A4   sty $a4fc
$9E43:  B9 40 4B   lda $4b40, y
$9E46:  4A         lsr
$9E47:  4A         lsr
$9E48:  4A         lsr
$9E49:  4A         lsr
$9E4A:  4A         lsr
$9E4B:  F0 22      beq label_9e6f
$9E4D:  C9 01      cmp #$01
$9E4F:  D0 21      bne label_9e72
$9E51: 
$9E51: label_9e51
$9E51:  20 6C 4C   jsr $4c6c
$9E54:  29 01      and #$01
$9E56:  F0 17      beq label_9e6f
$9E58:  A9 03      lda #$03
$9E5A:  85 4E      sta $4e
$9E5C: 
$9E5C: label_9e5c
$9E5C:  C6 4E      dec $4e
$9E5E:  30 0F      bmi label_9e6f
$9E60:  20 92 A0   jsr label_a092
$9E63:  B0 0A      bcs label_9e6f
$9E65:  20 86 A1   jsr label_a186
$9E68:  C9 04      cmp #$04
$9E6A:  B0 F0      bcs label_9e5c
$9E6C:  20 79 A1   jsr label_a179
$9E6F: 
$9E6F: label_9e6f
$9E6F:  4C 71 9F   jmp label_9f71
$9E72: 
$9E72: label_9e72
$9E72:  C9 02      cmp #$02
$9E74:  D0 12      bne label_9e88
$9E76:  20 6C 4C   jsr $4c6c
$9E79:  29 01      and #$01
$9E7B:  F0 08      beq label_9e85
$9E7D: 
$9E7D: label_9e7d
$9E7D:  20 92 A0   jsr label_a092
$9E80:  B0 03      bcs label_9e85
$9E82:  20 79 A1   jsr label_a179
$9E85: 
$9E85: label_9e85
$9E85:  4C 71 9F   jmp label_9f71
$9E88: 
$9E88: label_9e88
$9E88:  C9 03      cmp #$03
$9E8A:  D0 25      bne label_9eb1
$9E8C:  20 A1 A1   jsr label_a1a1
$9E8F:  C9 04      cmp #$04
$9E91:  B0 1B      bcs label_9eae
$9E93:  85 4F      sta $4f
$9E95:  A9 04      lda #$04
$9E97:  85 4E      sta $4e
$9E99: 
$9E99: label_9e99
$9E99:  C6 4E      dec $4e
$9E9B:  30 11      bmi label_9eae
$9E9D:  20 92 A0   jsr label_a092
$9EA0:  B0 0C      bcs label_9eae
$9EA2:  20 B7 A1   jsr label_a1b7
$9EA5:  C5 4F      cmp $4f
$9EA7:  F0 F0      beq label_9e99
$9EA9:  90 EE      bcc label_9e99
$9EAB:  20 79 A1   jsr label_a179
$9EAE: 
$9EAE: label_9eae
$9EAE:  4C 71 9F   jmp label_9f71
$9EB1: 
$9EB1: label_9eb1
$9EB1:  C9 04      cmp #$04
$9EB3:  D0 42      bne label_9ef7
$9EB5:  20 DC A1   jsr label_a1dc
$9EB8:  C9 04      cmp #$04
$9EBA:  90 03      bcc label_9ebf
$9EBC:  4C 51 9E   jmp label_9e51
$9EBF: 
$9EBF: label_9ebf
$9EBF:  20 A1 A1   jsr label_a1a1
$9EC2:  C9 01      cmp #$01
$9EC4:  D0 0E      bne label_9ed4
$9EC6:  A9 D4      lda #$d4
$9EC8:  8D 97 9A   sta $9a97
$9ECB:  8E 96 9A   stx $9a96
$9ECE:  AE 96 9A   ldx $9a96
$9ED1:  4C F4 9E   jmp label_9ef4
$9ED4: 
$9ED4: label_9ed4
$9ED4:  85 4F      sta $4f
$9ED6:  A9 04      lda #$04
$9ED8:  85 4E      sta $4e
$9EDA: 
$9EDA: label_9eda
$9EDA:  C6 4E      dec $4e
$9EDC:  30 16      bmi label_9ef4
$9EDE:  20 92 A0   jsr label_a092
$9EE1:  B0 11      bcs label_9ef4
$9EE3:  20 B7 A1   jsr label_a1b7
$9EE6:  C5 4F      cmp $4f
$9EE8:  B0 F0      bcs label_9eda
$9EEA:  20 86 A1   jsr label_a186
$9EED:  C9 04      cmp #$04
$9EEF:  B0 E9      bcs label_9eda
$9EF1:  20 79 A1   jsr label_a179
$9EF4: 
$9EF4: label_9ef4
$9EF4:  4C 71 9F   jmp label_9f71
$9EF7: 
$9EF7: label_9ef7
$9EF7:  C9 05      cmp #$05
$9EF9:  D0 29      bne label_9f24
$9EFB:  20 A1 A1   jsr label_a1a1
$9EFE:  85 4F      sta $4f
$9F00:  A9 04      lda #$04
$9F02:  85 4E      sta $4e
$9F04: 
$9F04: label_9f04
$9F04:  C6 4E      dec $4e
$9F06:  30 EC      bmi label_9ef4
$9F08:  20 92 A0   jsr label_a092
$9F0B:  B0 E7      bcs label_9ef4
$9F0D:  20 6C 4C   jsr $4c6c
$9F10:  29 0F      and #$0f
$9F12:  F0 07      beq label_9f1b
$9F14:  20 B7 A1   jsr label_a1b7
$9F17:  C5 4F      cmp $4f
$9F19:  B0 E9      bcs label_9f04
$9F1B: 
$9F1B: label_9f1b
$9F1B:  20 86 A1   jsr label_a186
$9F1E:  20 79 A1   jsr label_a179
$9F21:  4C F4 9E   jmp label_9ef4
$9F24: 
$9F24: label_9f24
$9F24:  C9 06      cmp #$06
$9F26:  D0 43      bne label_9f6b
$9F28:  20 A1 A1   jsr label_a1a1
$9F2B:  C9 05      cmp #$05
$9F2D:  90 08      bcc label_9f37
$9F2F:  BC 00 4A   ldy $4a00, x
$9F32:  30 34      bmi label_9f68
$9F34:  4C 51 9E   jmp label_9e51
$9F37: 
$9F37: label_9f37
$9F37:  C9 01      cmp #$01
$9F39:  D0 0A      bne label_9f45
$9F3B:  A9 C1      lda #$c1
$9F3D:  8D 97 9A   sta $9a97
$9F40:  8E 96 9A   stx $9a96
$9F43:  D0 23      bne label_9f68
$9F45: 
$9F45: label_9f45
$9F45:  48         pha
$9F46:  8A         txa
$9F47:  48         pha
$9F48:  A8         tay
$9F49:  20 C6 9A   jsr label_9ac6
$9F4C:  68         pla
$9F4D:  AA         tax
$9F4E:  68         pla
$9F4F:  85 4F      sta $4f
$9F51:  A9 06      lda #$06
$9F53:  85 4E      sta $4e
$9F55: 
$9F55: label_9f55
$9F55:  C6 4E      dec $4e
$9F57:  30 0F      bmi label_9f68
$9F59:  20 92 A0   jsr label_a092
$9F5C:  B0 0A      bcs label_9f68
$9F5E:  20 B7 A1   jsr label_a1b7
$9F61:  C5 4F      cmp $4f
$9F63:  B0 F0      bcs label_9f55
$9F65:  20 79 A1   jsr label_a179
$9F68: 
$9F68: label_9f68
$9F68:  4C 71 9F   jmp label_9f71
$9F6B: 
$9F6B: label_9f6b
$9F6B:  20 A1 A1   jsr label_a1a1
$9F6E:  4C 37 9F   jmp label_9f37
$9F71: 
$9F71: label_9f71
$9F71:  CA         dex
$9F72:  F0 03      beq label_9f77
$9F74:  4C CC 9B   jmp label_9bcc
$9F77: 
$9F77: label_9f77
$9F77:  AD 84 9F   lda $9f84
$9F7A:  AE 83 9F   ldx $9f83
$9F7D:  60         rts
$9F7E:!byte $00,$00,$00,$00,$00,$00,$00
$9F85: 
$9F85: label_9f85
$9F85:  CD 01 A2   cmp $a201
$9F88:  F0 05      beq label_9f8f
$9F8A:  AA         tax
$9F8B:  BD 92 9F   lda $9f92, x
$9F8E:  60         rts
$9F8F: 
$9F8F: label_9f8f
$9F8F:  A9 80      lda #$80
$9F91:  60         rts
$9F92:!byte $77,$77,$77,$77,$00,$00,$00,$00
$9F9A:!byte $00,$00,$00,$00,$77,$77,$00,$00
$9FA2:!byte $77,$77,$77,$77,$77,$77,$77,$77
$9FAA:!byte $77,$77,$77,$77,$77,$00,$00,$00
$9FB2:!byte $00,$00,$00,$00,$00,$00,$00,$77
$9FBA:!byte $77,$77,$77,$77,$00,$00,$77,$77
$9FC2:!byte $77,$77,$77,$77,$77,$77,$77,$77
$9FCA:!byte $77,$77,$77,$77,$77,$77,$77,$77
$9FD2:!byte $00,$00,$77,$77,$00,$00,$77,$00
$9FDA:!byte $00,$00,$77,$77,$77,$77,$77,$77
$9FE2:!byte $77,$77,$77,$77,$77,$77,$77,$77
$9FEA:!byte $77,$77,$77,$77,$77,$77,$77,$77
$9FF2:!byte $77,$77,$77,$77,$77,$77,$77,$77
$9FFA:!byte $77,$77,$00,$00,$77,$77,$77,$77
$A002:!byte $77,$77,$77,$77,$77,$77,$77,$77
$A00A:!byte $77,$77,$77,$77,$77,$77,$77,$77
$A012:!byte $77,$77,$77,$77,$77,$77,$77,$00
$A01A:!byte $77,$77,$77,$77,$77,$77,$77,$77
$A022:!byte $00,$00,$00,$00,$77,$77,$77,$77
$A02A:!byte $77,$77,$77,$77,$77,$77,$77,$77
$A032:!byte $77,$77,$77,$77,$77,$77,$77,$77
$A03A:!byte $77,$77,$00,$77,$77,$77,$77,$77
$A042:!byte $77,$77,$77,$77,$77,$77,$77,$77
$A04A:!byte $00,$77,$00,$77,$77,$77,$77,$77
$A052:!byte $77,$77,$77,$77,$00,$00,$00,$00
$A05A:!byte $00,$00,$77,$77,$77,$77,$77,$77
$A062:!byte $77,$77,$77,$77,$77,$77,$77,$77
$A06A:!byte $77,$77,$77,$77,$77,$77,$77,$77
$A072:!byte $77,$77,$77,$77,$77,$77,$77,$77
$A07A:!byte $77,$77,$77,$77,$77,$77,$77,$77
$A082:!byte $77,$77,$77,$77,$77,$77,$77,$77
$A08A:!byte $77,$77,$77,$77,$77,$77,$77,$77
$A092: 
$A092: label_a092
$A092:  BD 20 4A   lda $4a20, x
$A095:  29 F8      and #$f8
$A097:  C9 60      cmp #$60
$A099:  F0 60      beq label_a0fb
$A09B:  20 6C 4C   jsr $4c6c
$A09E:  29 01      and #$01
$A0A0:  8D FF A0   sta $a0ff
$A0A3:  D0 2B      bne label_a0d0
$A0A5: 
$A0A5: label_a0a5
$A0A5:  BD 60 4A   lda $4a60, x
$A0A8:  8D 95 9A   sta $9a95
$A0AB:  20 02 A1   jsr label_a102
$A0AE:  18         clc
$A0AF:  7D 40 4A   adc $4a40, x
$A0B2:  8D 94 9A   sta $9a94
$A0B5:  20 0F A1   jsr label_a10f
$A0B8:  F0 43      beq label_a0fd
$A0BA:  AD 00 A1   lda $a100
$A0BD:  49 FE      eor #$fe
$A0BF:  18         clc
$A0C0:  7D 40 4A   adc $4a40, x
$A0C3:  8D 94 9A   sta $9a94
$A0C6:  20 0F A1   jsr label_a10f
$A0C9:  F0 32      beq label_a0fd
$A0CB:  AD FF A0   lda $a0ff
$A0CE:  D0 2B      bne label_a0fb
$A0D0: 
$A0D0: label_a0d0
$A0D0:  BD 40 4A   lda $4a40, x
$A0D3:  8D 94 9A   sta $9a94
$A0D6:  20 02 A1   jsr label_a102
$A0D9:  18         clc
$A0DA:  7D 60 4A   adc $4a60, x
$A0DD:  8D 95 9A   sta $9a95
$A0E0:  20 0F A1   jsr label_a10f
$A0E3:  F0 18      beq label_a0fd
$A0E5:  AD 00 A1   lda $a100
$A0E8:  49 FE      eor #$fe
$A0EA:  18         clc
$A0EB:  7D 60 4A   adc $4a60, x
$A0EE:  8D 95 9A   sta $9a95
$A0F1:  20 0F A1   jsr label_a10f
$A0F4:  F0 07      beq label_a0fd
$A0F6:  AD FF A0   lda $a0ff
$A0F9:  D0 AA      bne label_a0a5
$A0FB: 
$A0FB: label_a0fb
$A0FB:  38         sec
$A0FC:  60         rts
$A0FD: 
$A0FD: label_a0fd
$A0FD:  18         clc
$A0FE:  60         rts
$A0FF:!byte $00,$00,$00
$A102: 
$A102: label_a102
$A102:  20 6C 4C   jsr $4c6c
$A105:  29 01      and #$01
$A107:  D0 02      bne label_a10b
$A109:  A9 FF      lda #$ff
$A10B: 
$A10B: label_a10b
$A10B:  8D 00 A1   sta $a100
$A10E:  60         rts
$A10F: 
$A10F: label_a10f
$A10F:  AD 94 9A   lda $9a94
$A112:  85 A9      sta $a9
$A114:  29 1F      and #$1f
$A116:  C5 A9      cmp $a9
$A118:  D0 5B      bne label_a175
$A11A:  A8         tay
$A11B:  AD 95 9A   lda $9a95
$A11E:  85 AA      sta $aa
$A120:  29 1F      and #$1f
$A122:  C5 AA      cmp $aa
$A124:  D0 4F      bne label_a175
$A126:  8E 78 A1   stx $a178
$A129:  BD 00 4A   lda $4a00, x
$A12C:  C9 FC      cmp #$fc
$A12E:  A9 00      lda #$00
$A130:  B0 1A      bcs label_a14c
$A132:  20 1E 4C   jsr $4c1e
$A135:  C9 90      cmp #$90
$A137:  90 04      bcc label_a13d
$A139:  C9 94      cmp #$94
$A13B:  90 0F      bcc label_a14c
$A13D: 
$A13D: label_a13d
$A13D:  C9 30      cmp #$30
$A13F:  90 08      bcc label_a149
$A141:  C9 34      cmp #$34
$A143:  B0 04      bcs label_a149
$A145:  A9 00      lda #$00
$A147:  F0 03      beq label_a14c
$A149: 
$A149: label_a149
$A149:  20 85 9F   jsr label_9f85
$A14C: 
$A14C: label_a14c
$A14C:  AE 78 A1   ldx $a178
$A14F:  A8         tay
$A150:  D0 23      bne label_a175
$A152: 
$A152: label_a152
$A152:  A0 1F      ldy #$1f
$A154: 
$A154: label_a154
$A154:  B9 00 4A   lda $4a00, y
$A157:  F0 16      beq label_a16f
$A159:  A5 A9      lda $a9
$A15B:  D9 40 4A   cmp $4a40, y
$A15E:  D0 0F      bne label_a16f
$A160:  A5 AA      lda $aa
$A162:  D9 60 4A   cmp $4a60, y
$A165:  D0 08      bne label_a16f
$A167:  BD 80 4A   lda $4a80, x
$A16A:  D9 80 4A   cmp $4a80, y
$A16D:  F0 06      beq label_a175
$A16F: 
$A16F: label_a16f
$A16F:  88         dey
$A170:  10 E2      bpl label_a154
$A172:  A9 00      lda #$00
$A174:  60         rts
$A175: 
$A175: label_a175
$A175:  A9 77      lda #$77
$A177:  60         rts
$A178:!byte $00
$A179: 
$A179: label_a179
$A179:  AD 94 9A   lda $9a94
$A17C:  9D 40 4A   sta $4a40, x
$A17F:  AD 95 9A   lda $9a95
$A182:  9D 60 4A   sta $4a60, x
$A185:  60         rts
$A186: 
$A186: label_a186
$A186:  AD 90 9A   lda $9a90
$A189:  AC 94 9A   ldy $9a94
$A18C:  20 CD A1   jsr label_a1cd
$A18F:  85 FC      sta $fc
$A191:  AD 91 9A   lda $9a91
$A194:  AC 95 9A   ldy $9a95
$A197:  20 CD A1   jsr label_a1cd
$A19A:  C5 FC      cmp $fc
$A19C:  B0 02      bcs label_a1a0
$A19E:  A5 FC      lda $fc
$A1A0: 
$A1A0: label_a1a0
$A1A0:  60         rts
$A1A1: 
$A1A1: label_a1a1
$A1A1:  BD 40 4A   lda $4a40, x
$A1A4:  A4 2D      ldy $2d
$A1A6:  20 CD A1   jsr label_a1cd
$A1A9:  85 FC      sta $fc
$A1AB:  BD 60 4A   lda $4a60, x
$A1AE:  A4 2E      ldy $2e
$A1B0:  20 CD A1   jsr label_a1cd
$A1B3:  18         clc
$A1B4:  65 FC      adc $fc
$A1B6:  60         rts
$A1B7: 
$A1B7: label_a1b7
$A1B7:  A5 2D      lda $2d
$A1B9:  AC 94 9A   ldy $9a94
$A1BC:  20 CD A1   jsr label_a1cd
$A1BF:  85 FC      sta $fc
$A1C1:  A5 2E      lda $2e
$A1C3:  AC 95 9A   ldy $9a95
$A1C6:  20 CD A1   jsr label_a1cd
$A1C9:  18         clc
$A1CA:  65 FC      adc $fc
$A1CC:  60         rts
$A1CD: 
$A1CD: label_a1cd
$A1CD:  84 FD      sty $fd
$A1CF:  38         sec
$A1D0:  E5 FD      sbc $fd
$A1D2:  B0 07      bcs label_a1db
$A1D4:  38         sec
$A1D5:  85 FD      sta $fd
$A1D7:  A9 00      lda #$00
$A1D9:  E5 FD      sbc $fd
$A1DB: 
$A1DB: label_a1db
$A1DB:  60         rts
$A1DC: 
$A1DC: label_a1dc
$A1DC:  BD 40 4A   lda $4a40, x
$A1DF:  A4 2D      ldy $2d
$A1E1:  20 CD A1   jsr label_a1cd
$A1E4:  85 FC      sta $fc
$A1E6:  BD 60 4A   lda $4a60, x
$A1E9:  A4 2E      ldy $2e
$A1EB:  20 CD A1   jsr label_a1cd
$A1EE:  C5 FC      cmp $fc
$A1F0:  B0 02      bcs label_a1f4
$A1F2:  A5 FC      lda $fc
$A1F4: 
$A1F4: label_a1f4
$A1F4:  60         rts
$A1F5:!byte $00,$00,$00,$00,$00,$00,$00,$00
$A1FD:!byte $00,$00,$00,$00,$00
$A202: 
$A202: label_a202
$A202:  8E FC A1   stx $a1fc
$A205:  20 0F A3   jsr label_a30f
$A208:  20 45 A3   jsr label_a345
$A20B: 
$A20B: label_a20b
$A20B:  20 E0 A3   jsr label_a3e0
$A20E:  B0 05      bcs label_a215
$A210:  20 7E A3   jsr label_a37e
$A213:  B0 F6      bcs label_a20b
$A215: 
$A215: label_a215
$A215:  AE FC A1   ldx $a1fc
$A218:  AD F6 A1   lda $a1f6
$A21B:  8D FC A1   sta $a1fc
$A21E:  AD F5 A1   lda $a1f5
$A221:  8D FB A1   sta $a1fb
$A224:  60         rts
$A225: 
$A225: label_a225
$A225:  20 0F A3   jsr label_a30f
$A228:  A2 1F      ldx #$1f
$A22A: 
$A22A: label_a22a
$A22A:  BD 80 4A   lda $4a80, x
$A22D:  C5 09      cmp $09
$A22F:  D0 2C      bne label_a25d
$A231:  BD 40 4A   lda $4a40, x
$A234:  AC FA A1   ldy $a1fa
$A237:  20 CD A1   jsr label_a1cd
$A23A:  85 FC      sta $fc
$A23C:  BD 60 4A   lda $4a60, x
$A23F:  AC F9 A1   ldy $a1f9
$A242:  20 CD A1   jsr label_a1cd
$A245:  18         clc
$A246:  65 FC      adc $fc
$A248:  C9 04      cmp #$04
$A24A:  B0 11      bcs label_a25d
$A24C:  BC 60 4A   ldy $4a60, x
$A24F:  20 73 A3   jsr label_a373
$A252:  BC 40 4A   ldy $4a40, x
$A255:  B1 FE      lda ( $fe ), y
$A257:  30 04      bmi label_a25d
$A259:  A9 77      lda #$77
$A25B:  91 FE      sta ( $fe ), y
$A25D: 
$A25D: label_a25d
$A25D:  CA         dex
$A25E:  10 CA      bpl label_a22a
$A260:  AD 01 A2   lda $a201
$A263:  D0 0D      bne label_a272
$A265:  AC FB A1   ldy $a1fb
$A268:  20 73 A3   jsr label_a373
$A26B:  AC FC A1   ldy $a1fc
$A26E:  A9 80      lda #$80
$A270:  91 FE      sta ( $fe ), y
$A272: 
$A272: label_a272
$A272:  20 45 A3   jsr label_a345
$A275: 
$A275: label_a275
$A275:  20 E0 A3   jsr label_a3e0
$A278:  90 01      bcc label_a27b
$A27A:  60         rts
$A27B: 
$A27B: label_a27b
$A27B:  20 7E A3   jsr label_a37e
$A27E:  B0 F5      bcs label_a275
$A280:  A9 FF      lda #$ff
$A282:  8D 00 A2   sta $a200
$A285:  8D 05 A3   sta $a305
$A288:  8D 06 A3   sta $a306
$A28B:  AD F5 A1   lda $a1f5
$A28E:  8D F7 A1   sta $a1f7
$A291:  AD F6 A1   lda $a1f6
$A294:  8D F8 A1   sta $a1f8
$A297: 
$A297: label_a297
$A297:  EE 00 A2   inc $a200
$A29A:  AC F7 A1   ldy $a1f7
$A29D:  B9 3C A4   lda $a43c, y
$A2A0:  85 FE      sta $fe
$A2A2:  B9 5C A4   lda $a45c, y
$A2A5:  85 FF      sta $ff
$A2A7:  AC F8 A1   ldy $a1f8
$A2AA:  B1 FE      lda ( $fe ), y
$A2AC:  C9 7F      cmp #$7f
$A2AE:  F0 3C      beq label_a2ec
$A2B0:  AA         tax
$A2B1:  18         clc
$A2B2:  AD F7 A1   lda $a1f7
$A2B5:  7D 06 A3   adc $a306, x
$A2B8:  8D F7 A1   sta $a1f7
$A2BB:  18         clc
$A2BC:  AD F8 A1   lda $a1f8
$A2BF:  7D 0A A3   adc $a30a, x
$A2C2:  8D F8 A1   sta $a1f8
$A2C5:  EC 05 A3   cpx $a305
$A2C8:  D0 0F      bne label_a2d9
$A2CA:  AC 06 A3   ldy $a306
$A2CD:  B9 7C A4   lda $a47c, y
$A2D0:  18         clc
$A2D1:  69 04      adc #$04
$A2D3:  99 7C A4   sta $a47c, y
$A2D6:  4C 97 A2   jmp label_a297
$A2D9: 
$A2D9: label_a2d9
$A2D9:  EE 06 A3   inc $a306
$A2DC:  AC 06 A3   ldy $a306
$A2DF:  8E 05 A3   stx $a305
$A2E2:  CA         dex
$A2E3:  8A         txa
$A2E4:  09 04      ora #$04
$A2E6:  99 7C A4   sta $a47c, y
$A2E9:  4C 97 A2   jmp label_a297
$A2EC: 
$A2EC: label_a2ec
$A2EC:  AE 06 A3   ldx $a306
$A2EF:  A0 01      ldy #$01
$A2F1: 
$A2F1: label_a2f1
$A2F1:  BD 7C A4   lda $a47c, x
$A2F4:  91 4E      sta ( $4e ), y
$A2F6:  C8         iny
$A2F7:  98         tya
$A2F8:  29 0F      and #$0f
$A2FA:  F0 07      beq label_a303
$A2FC:  CA         dex
$A2FD:  10 F2      bpl label_a2f1
$A2FF:  A9 00      lda #$00
$A301:  91 4E      sta ( $4e ), y
$A303: 
$A303: label_a303
$A303:  18         clc
$A304:  60         rts
$A305:!byte $00,$00,$01,$00,$FF,$00,$00,$FF
$A30D:!byte $00,$01
$A30F: 
$A30F: label_a30f
$A30F:  A9 00      lda #$00
$A311:  85 FE      sta $fe
$A313:  A9 BC      lda #$bc
$A315:  85 FF      sta $ff
$A317:  A9 00      lda #$00
$A319:  85 FC      sta $fc
$A31B:  A9 44      lda #$44
$A31D:  85 FD      sta $fd
$A31F: 
$A31F: label_a31f
$A31F:  20 5C A3   jsr label_a35c
$A322:  E6 FD      inc $fd
$A324:  20 5C A3   jsr label_a35c
$A327:  C6 FD      dec $fd
$A329:  18         clc
$A32A:  A5 FC      lda $fc
$A32C:  69 10      adc #$10
$A32E:  85 FC      sta $fc
$A330:  D0 ED      bne label_a31f
$A332:  E6 FD      inc $fd
$A334:  E6 FD      inc $fd
$A336:  A5 FD      lda $fd
$A338:  C9 46      cmp #$46
$A33A:  F0 E3      beq label_a31f
$A33C:  A9 00      lda #$00
$A33E:  8D FD A1   sta $a1fd
$A341:  8D FE A1   sta $a1fe
$A344:  60         rts
$A345: 
$A345: label_a345
$A345:  AC F9 A1   ldy $a1f9
$A348:  8C F5 A1   sty $a1f5
$A34B:  20 73 A3   jsr label_a373
$A34E:  AC FA A1   ldy $a1fa
$A351:  8C F6 A1   sty $a1f6
$A354:  A9 7F      lda #$7f
$A356:  91 FE      sta ( $fe ), y
$A358:  20 C9 A3   jsr label_a3c9
$A35B:  60         rts
$A35C: 
$A35C: label_a35c
$A35C:  A0 00      ldy #$00
$A35E: 
$A35E: label_a35e
$A35E:  B1 FC      lda ( $fc ), y
$A360:  20 85 9F   jsr label_9f85
$A363:  A2 00      ldx #$00
$A365:  81 FE      sta ( $fe, x)
$A367:  E6 FE      inc $fe
$A369:  D0 02      bne label_a36d
$A36B:  E6 FF      inc $ff
$A36D: 
$A36D: label_a36d
$A36D:  C8         iny
$A36E:  C0 10      cpy #$10
$A370:  90 EC      bcc label_a35e
$A372:  60         rts
$A373: 
$A373: label_a373
$A373:  B9 3C A4   lda $a43c, y
$A376:  85 FE      sta $fe
$A378:  B9 5C A4   lda $a45c, y
$A37B:  85 FF      sta $ff
$A37D:  60         rts
$A37E: 
$A37E: label_a37e
$A37E:  AC F7 A1   ldy $a1f7
$A381:  B9 3C A4   lda $a43c, y
$A384:  85 FE      sta $fe
$A386:  B9 5C A4   lda $a45c, y
$A389:  85 FF      sta $ff
$A38B:  AC F8 A1   ldy $a1f8
$A38E:  B1 FE      lda ( $fe ), y
$A390:  C9 7F      cmp #$7f
$A392:  D0 02      bne label_a396
$A394:  A9 01      lda #$01
$A396: 
$A396: label_a396
$A396:  8D C8 A3   sta $a3c8
$A399:  8D FF A1   sta $a1ff
$A39C: 
$A39C: label_a39c
$A39C:  20 FF A3   jsr label_a3ff
$A39F:  B0 13      bcs label_a3b4
$A3A1:  20 C9 A3   jsr label_a3c9
$A3A4:  AD FF A1   lda $a1ff
$A3A7:  11 FE      ora ( $fe ), y
$A3A9:  10 07      bpl label_a3b2
$A3AB:  AD FF A1   lda $a1ff
$A3AE:  91 FE      sta ( $fe ), y
$A3B0:  18         clc
$A3B1:  60         rts
$A3B2: 
$A3B2: label_a3b2
$A3B2:  91 FE      sta ( $fe ), y
$A3B4: 
$A3B4: label_a3b4
$A3B4:  CE FF A1   dec $a1ff
$A3B7:  AD FF A1   lda $a1ff
$A3BA:  D0 05      bne label_a3c1
$A3BC:  A9 04      lda #$04
$A3BE:  8D FF A1   sta $a1ff
$A3C1: 
$A3C1: label_a3c1
$A3C1:  CD C8 A3   cmp $a3c8
$A3C4:  D0 D6      bne label_a39c
$A3C6:  38         sec
$A3C7:  60         rts
$A3C8:!byte $00
$A3C9: 
$A3C9: label_a3c9
$A3C9:  AE FD A1   ldx $a1fd
$A3CC:  AD F5 A1   lda $a1f5
$A3CF:  9D 7C A4   sta $a47c, x
$A3D2:  AD F6 A1   lda $a1f6
$A3D5:  9D BC A4   sta $a4bc, x
$A3D8:  E8         inx
$A3D9:  8A         txa
$A3DA:  29 3F      and #$3f
$A3DC:  8D FD A1   sta $a1fd
$A3DF:  60         rts
$A3E0: 
$A3E0: label_a3e0
$A3E0:  AE FE A1   ldx $a1fe
$A3E3:  EC FD A1   cpx $a1fd
$A3E6:  D0 02      bne label_a3ea
$A3E8:  38         sec
$A3E9:  60         rts
$A3EA: 
$A3EA: label_a3ea
$A3EA:  BD 7C A4   lda $a47c, x
$A3ED:  8D F7 A1   sta $a1f7
$A3F0:  BD BC A4   lda $a4bc, x
$A3F3:  8D F8 A1   sta $a1f8
$A3F6:  E8         inx
$A3F7:  8A         txa
$A3F8:  29 3F      and #$3f
$A3FA:  8D FE A1   sta $a1fe
$A3FD:  18         clc
$A3FE:  60         rts
$A3FF: 
$A3FF: label_a3ff
$A3FF:  AE FF A1   ldx $a1ff
$A402:  18         clc
$A403:  AD F7 A1   lda $a1f7
$A406:  7D 33 A4   adc $a433, x
$A409:  C9 20      cmp #$20
$A40B:  B0 23      bcs label_a430
$A40D:  8D F5 A1   sta $a1f5
$A410:  A8         tay
$A411:  B9 3C A4   lda $a43c, y
$A414:  85 FE      sta $fe
$A416:  B9 5C A4   lda $a45c, y
$A419:  85 FF      sta $ff
$A41B:  18         clc
$A41C:  AD F8 A1   lda $a1f8
$A41F:  7D 37 A4   adc $a437, x
$A422:  C9 20      cmp #$20
$A424:  B0 0A      bcs label_a430
$A426:  8D F6 A1   sta $a1f6
$A429:  A8         tay
$A42A:  B1 FE      lda ( $fe ), y
$A42C:  F0 04      beq label_a432
$A42E:  30 02      bmi label_a432
$A430: 
$A430: label_a430
$A430:  38         sec
$A431:  60         rts
$A432: 
$A432: label_a432
$A432:  18         clc
$A433:  60         rts
$A434:!byte $FF,$00,$01,$00,$00,$01,$00,$FF
$A43C:!byte $00,$20,$40,$60,$80,$A0,$C0,$E0
$A444:!byte $00,$20,$40,$60,$80,$A0,$C0,$E0
$A44C:!byte $00,$20,$40,$60,$80,$A0,$C0,$E0
$A454:!byte $00,$20,$40,$60,$80,$A0,$C0,$E0
$A45C:!byte $BC,$BC,$BC,$BC,$BC,$BC,$BC,$BC
$A464:!byte $BD,$BD,$BD,$BD,$BD,$BD,$BD,$BD
$A46C:!byte $BE,$BE,$BE,$BE,$BE,$BE,$BE,$BE
$A474:!byte $BF,$BF,$BF,$BF,$BF,$BF,$BF,$BF
$A47C:!byte $00,$00,$00,$00,$00,$00,$00,$00
$A484:!byte $00,$00,$00,$00,$00,$00,$00,$00
$A48C:!byte $00,$00,$00,$00,$00,$00,$00,$00
$A494:!byte $00,$00,$00,$00,$00,$00,$00,$00
$A49C:!byte $00,$00,$00,$00,$00,$00,$00,$00
$A4A4:!byte $00,$00,$00,$00,$00,$00,$00,$00
$A4AC:!byte $00,$00,$00,$00,$00,$00,$00,$00
$A4B4:!byte $00,$00,$00,$00,$00,$00,$00,$00
$A4BC:!byte $00,$00,$00,$00,$00,$00,$00,$00
$A4C4:!byte $00,$00,$00,$00,$00,$00,$00,$00
$A4CC:!byte $00,$00,$00,$00,$00,$00,$00,$00
$A4D4:!byte $00,$00,$00,$00,$00,$00,$00,$00
$A4DC:!byte $00,$00,$00,$00,$00,$00,$00,$00
$A4E4:!byte $00,$00,$00,$00,$00,$00,$00,$00
$A4EC:!byte $00,$00,$00,$00,$00,$00,$00,$00
$A4F4:!byte $00,$00,$00,$00,$00,$00,$00,$00
$A4FC:!byte $00
