                            * = $8000
8000   4c e9 81             jmp l81e9
8003   4c 37 94             jmp l9437
8006   4c 92 8a             jmp l8a92
8009   4c 92 9b             jmp l9b92
800c   4c 37 97             jmp l9737
800f   4c 48 97             jmp l9748
8012   4c 71 95             jmp l9571
8015   4c 3d a2             jmp la23d
8018   4c e5 95             jmp l95e5
801b   4c 11 93             jmp l9311
801e   4c fe a1             jmp la1fe
8021   4c d7 97             jmp l97d7
8024   4c a8 a2             jmp la2a8
8027   4c e4 9d             jmp l9de4
802a   4c 0c 94             jmp l940c
802d   4c 00 97             jmp l9700
8030   4c ba 93             jmp l93ba
8033   4c f8 a2             jmp la2f8
8036   4c bc 99             jmp l99bc
8039   4c e1 9f             jmp l9fe1
803c   4c d7 98             jmp l98d7
803f   4c c6 98             jmp l98c6
8042   4c be 96             jmp l96be
8045   4c bf 95             jmp l95bf
8048   4c e8 98             jmp l98e8
804b   4c db a3             jmp la3db
804e   4c a9 97             jmp l97a9
8051   a0 e8                ldy #$e8
8053   e9 f4                sbc #$f4
8055   a1 0d                lda ($0d,x)
8057   a0 eb                ldy #$eb
8059   e9 ec                sbc #$ec
805b   ec e5 e4             cpx $e4e5
805e   a1 0d                lda ($0d,x)
8060   a0 ed                ldy #$ed
8062   e9 f3                sbc #$f3
8064   f3                   ???                ;%11110011
8065   e5 e4                sbc $e4
8067   a1 0d                lda ($0d,x)
8069   ac a0 e1             ldy $e1a0
806c   f2                   ???                ;%11110010
806d   ed e5 e4             sbc $e4e5
8070   a0 f7                ldy #$f7
8072   e9 f4                sbc #$f4
8074   e8                   inx
8075   20 a0 e2             jsr $e2a0
8078   e1 f2                sbc ($f2,x)
807a   e5 ec                sbc $ec
807c   f9 a0 f7             sbc $f7a0,y
807f   ef                   ???                ;%11101111
8080   f5 ee                sbc $ee,x
8082   e4 e5                cpx $e5
8084   e4 a1                cpx $a1
8086   0d a0 ec             ora $eca0
8089   e9 e7                sbc #$e7
808b   e8                   inx
808c   f4                   ???                ;%11110100
808d   ec f9 a0             cpx $a0f9
8090   f7                   ???                ;%11110111
8091   ef                   ???                ;%11101111
8092   f5 ee                sbc $ee,x
8094   e4 e5                cpx $e5
8096   e4 a1                cpx $a1
8098   0d a0 e8             ora $e8a0
809b   e5 e1                sbc $e1
809d   f6 e9                inc $e9,x
809f   ec f9 a0             cpx $a0f9
80a2   f7                   ???                ;%11110111
80a3   ef                   ???                ;%11101111
80a4   f5 ee                sbc $ee,x
80a6   e4 e5                cpx $e5
80a8   e4 a1                cpx $a1
80aa   0d a0 e3             ora $e3a0
80ad   f2                   ???                ;%11110010
80ae   e9 f4                sbc #$f4
80b0   e9 e3                sbc #$e3
80b2   e1 ec                sbc ($ec,x)
80b4   a1 0d                lda ($0d,x)
80b6   0d 0d a0             ora $a00d
80b9   f3                   ???                ;%11110011
80ba   f4                   ???                ;%11110100
80bb   ef                   ???                ;%11101111
80bc   ec e5 a0             cpx $a0e5
80bf   f3                   ???                ;%11110011
80c0   ef                   ???                ;%11101111
80c1   ed e5 a0             sbc $a0e5
80c4   e6 ef                inc $ef
80c6   ef                   ???                ;%11101111
80c7   e4 a1                cpx $a1
80c9   0d a0 eb             ora $eba0
80cc   e9 e3                sbc #$e3
80ce   eb                   ???                ;%11101011
80cf   e5 e4                sbc $e4
80d1   a0 f9                ldy #$f9
80d3   ef                   ???                ;%11101111
80d4   f5 a0                sbc $a0,x
80d6   e9 ee                sbc #$ee
80d8   a0 f4                ldy #$f4
80da   e8                   inx
80db   e5 a0      l80db     sbc $a0
80dd   ec e5 e7             cpx $e7e5
80e0   a1 0d                lda ($0d,x)
80e2   a0 f4                ldy #$f4
80e4   e5 ec                sbc $ec
80e6   e5 f0                sbc $f0
80e8   ef                   ???                ;%11101111
80e9   f2                   ???                ;%11110010
80ea   f4                   ???                ;%11110100
80eb   f3                   ???                ;%11110011
80ec   a1 0d                lda ($0d,x)
80ee   a0 e4                ldy #$e4
80f0   e9 f3                sbc #$f3
80f2   e1 f0                sbc ($f0,x)
80f4   f0 e5                beq l80db
80f6   e1 f2                sbc ($f2,x)
80f8   f3                   ???                ;%11110011
80f9   a1 0d                lda ($0d,x)
80fb   a0 f2                ldy #$f2
80fd   e5 e1                sbc $e1
80ff   f0 f0                beq l80f1
8101   e5 e1                sbc $e1
8103   f2                   ???                ;%11110010
8104   f3                   ???                ;%11110011
8105   a1 0d                lda ($0d,x)
8107   a0 e4                ldy #$e4
8109   e9 f6                sbc #$f6
810b   e9 e4                sbc #$e4
810d   e5 f3                sbc $f3
810f   a1 0d                lda ($0d,x)
8111   a0 e7                ldy #$e7
8113   e1 f4                sbc ($f4,x)
8115   e5 f3                sbc $f3
8117   a0 e9                ldy #$e9
8119   ee a0 e1             inc $e1a0
811c   a0 e4                ldy #$e4
811e   e1 e5                sbc ($e5,x)
8120   ed ef ee             sbc $eeef
8123   a1 0d                lda ($0d,x)
8125   a0 f6                ldy #$f6
8127   e1 ee                sbc ($ee,x)
8129   e9 f3                sbc #$f3
812b   e8                   inx
812c   e5 f3                sbc $f3
812e   a1 0d                lda ($0d,x)
8130   a0 e5                ldy #$e5
8132   f3                   ???                ;%11110011
8133   e3                   ???                ;%11100011
8134   e1 f0                sbc ($f0,x)
8136   e5 f3                sbc $f3
8138   a1 0d                lda ($0d,x)
813a   0d a0 f0             ora $f0a0
813d   ef                   ???                ;%11101111
813e   e9 f3                sbc #$f3
8140   ef                   ???                ;%11101111
8141   ee e5 e4             inc $e4e5
8144   a1 0d                lda ($0d,x)
8146   a0 f0                ldy #$f0
8148   ef                   ???                ;%11101111
8149   f3                   ???                ;%11110011
814a   f3                   ???                ;%11110011
814b   e5 f3                sbc $f3
814d   f3                   ???                ;%11110011
814e   e5 e4                sbc $e4
8150   a1 0d                lda ($0d,x)
8152   a0 f0                ldy #$f0
8154   f5 ec                sbc $ec,x
8156   ec e5 e4             cpx $e4e5
8159   a0 f5                ldy #$f5
815b   ee e4 e5             inc $e5e4
815e   f2                   ???                ;%11110010
815f   a1 0d                lda ($0d,x)
8161   a0 f2                ldy #$f2
8163   e5 e7                sbc $e7
8165   f5 f2                sbc $f2,x
8167   e7                   ???                ;%11100111
8168   e9 f4                sbc #$f4
816a   e1 f4                sbc ($f4,x)
816c   e5 e4                sbc $e4
816e   a1 0d                lda ($0d,x)
8170   a0 e7                ldy #$e7
8172   f2                   ???                ;%11110010
8173   e1 fa                sbc ($fa,x)
8175   e5 e4                sbc $e4
8177   a1 0d                lda ($0d,x)
8179   0d a0 e9             ora $e9a0
817c   ee f4 e5             inc $e5f4
817f   f2                   ???                ;%11110010
8180   e6 e5                inc $e5
8182   f2                   ???                ;%11110010
8183   e5 f3                sbc $f3
8185   a1 0d                lda ($0d,x)
8187   a0 f0                ldy #$f0
8189   e1 f3                sbc ($f3,x)
818b   f3                   ???                ;%11110011
818c   e5 f3                sbc $f3
818e   a0 ef                ldy #$ef
8190   f5 f4                sbc $f4,x
8192   a1 0d                lda ($0d,x)
8194   a0 f3                ldy #$f3
8196   ec e5 f0             cpx $f0e5
8199   f4                   ???                ;%11110100
819a   a1 0d                lda ($0d,x)
819c   a0 e9                ldy #$e9
819e   f3                   ???                ;%11110011
819f   a0 e1                ldy #$e1
81a1   e2                   ???                ;%11100010
81a2   f3                   ???                ;%11110011
81a3   ef                   ???                ;%11101111
81a4   f2                   ???                ;%11110010
81a5   e2                   ???                ;%11100010
81a6   e5 e4                sbc $e4
81a8   21 c2                and ($c2,x)
81aa   ef                   ???                ;%11101111
81ab   e1 f2                sbc ($f2,x)
81ad   64                   ???                ;%01100100 'd'
81ae   c5 ee                cmp $ee
81b0   f4                   ???                ;%11110100
81b1   e5 72                sbc $72
81b3   c6 e9                dec $e9
81b5   f2                   ???                ;%11110010
81b6   65 c8                adc $c8
81b8   ef                   ???                ;%11101111
81b9   ec e5 a0             cpx $a0e5
81bc   f5 f0                sbc $f0,x
81be   0d c9 e7             ora $e7c9
81c1   ee e9 f4             inc $f4e9
81c4   e5 0d                sbc $0d
81c6   cc ef ef             cpy $efef
81c9   6b                   ???                ;%01101011 'k'
81ca   cd e9 78             cmp $78e9
81cd   ce e5 f7             dec $f7e5
81d0   a0 ef                ldy #$ef
81d2   f2                   ???                ;%11110010
81d3   e4 e5                cpx $e5
81d5   f2                   ???                ;%11110010
81d6   0d d1 f5             ora $f5d1
81d9   e9 74                sbc #$74
81db   d4                   ???                ;%11010100
81dc   e1 ec                sbc ($ec,x)
81de   6b                   ???                ;%01101011 'k'
81df   d6 e9                dec $e9,x
81e1   e5 77                sbc $77
81e3   57                   ???                ;%01010111 'W'
81e4   d8                   cld
81e5   ad e9 74             lda $74e9
81e8   44                   ???                ;%01000100 'D'
81e9   a0 3f      l81e9     ldy #$3f
81eb   a9 00                lda #$00
81ed   99 40 43   l81ed     sta $4340,y
81f0   88                   dey
81f1   10 fa                bpl l81ed
81f3   98                   tya
81f4   8d 56 43             sta $4356
81f7   8d 5e 43             sta $435e
81fa   a0 1f                ldy #$1f
81fc   99 40 41   l81fc     sta $4140,y
81ff   99 a0 41             sta $41a0,y
8202   88                   dey
8203   10 f7                bpl l81fc
8205   a5 2d                lda $2d
8207   8d fa 91             sta $91fa
820a   a5 2e                lda $2e
820c   8d fe 91             sta $91fe
820f   a9 00                lda #$00
8211   85 fc                sta $fc
8213   a9 a7                lda #$a7
8215   a2 00                ldx #$00
8217   a0 45                ldy #$45
8219   20 73 a4             jsr la473
821c   a9 fc                lda #$fc
821e   85 fc                sta $fc
8220   a9 a9                lda #$a9
8222   a2 00                ldx #$00
8224   a0 bb                ldy #$bb
8226   20 73 a4             jsr la473
8229   a5 2c                lda $2c
822b   8d 5c 43             sta $435c
822e   a5 0a                lda $0a
8230   8d 5b 43             sta $435b
8233   a2 ff                ldx #$ff
8235   9a                   txs
8236   86 2c                stx $2c
8238   86 0a                stx $0a
823a   86 71                stx $71
823c   e8                   inx
823d   86 7a                stx $7a
823f   8e 55 43             stx $4355
8242   86 73                stx $73
8244   20 2a 4c             jsr $4c2a
8247   20 30 4c             jsr $4c30
824a   a5 8a                lda $8a
824c   8d a6 83             sta $83a6
824f   a5 89                lda $89
8251   8d 58 43             sta $4358
8254   29 84                and #$84
8256   d0 16                bne l826e
8258   20 00 4c             jsr $4c00
825b   8d aa aa             sta $aaaa
825e   aa                   tax
825f   a0 c3                ldy #$c3
8261   cf                   ???                ;%11001111
8262   ce c6 cc             dec $ccc6
8265   c9 c3                cmp #$c3
8267   d4                   ???                ;%11010100
8268   a0 aa                ldy #$aa
826a   aa                   tax
826b   aa                   tax
826c   8d 00 a2             sta $a200
826f   04                   ???                ;%00000100
8270   ad 58 43             lda $4358
8273   29 04                and #$04
8275   f0 01                beq l8278
8277   e8                   inx                ; play next song?
8278   20 40 6c   l8278     jsr $6c40          ; play song
827b   a6 88                ldx $88
827d   8e 5d 43             stx $435d
8280   8e 57 43             stx $4357
8283   ad 58 43             lda $4358
8286   29 02                and #$02
8288   f0 06                beq l8290
828a   8e 59 43             stx $4359
828d   4c a7 82             jmp l82a7
8290   bd c0 4a   l8290     lda $4ac0,x
8293   8d 6a 43             sta $436a
8296   bd 00 4a             lda $4a00,x
8299   8d 59 43             sta $4359
829c   29 f0                and #$f0
829e   c9 20                cmp #$20
82a0   d0 05                bne l82a7
82a2   a9 44                lda #$44
82a4   8d 59 43             sta $4359
82a7   a0 00      l82a7     ldy #$00
82a9   b9 00 4a   l82a9     lda $4a00,y
82ac   99 00 ba             sta $ba00,y
82af   88                   dey
82b0   d0 f7                bne l82a9
82b2   a0 1f                ldy #$1f
82b4   20 be 96   l82b4     jsr l96be
82b7   88                   dey
82b8   10 fa                bpl l82b4
82ba   ad 3c 44             lda $443c
82bd   c9 dc                cmp #$dc
82bf   d0 14                bne l82d5
82c1   a2 05                ldx #$05
82c3   a0 05                ldy #$05
82c5   a9 01                lda #$01
82c7   20 2f 96             jsr l962f
82ca   20 d2 a5             jsr la5d2
82cd   a6 74                ldx $74
82cf   bd 3e 47             lda $473e,x
82d2   8d 3c 44             sta $443c
82d5   20 1e 6c   l82d5     jsr $6c1e
82d8   10 03                bpl l82dd
82da   4c f4 91             jmp l91f4
82dd   a9 05      l82dd     lda #$05
82df   48         l82df     pha
82e0   a8                   tay
82e1   20 b4 96             jsr l96b4
82e4   d0 40                bne l8326
82e6   bd 83 10             lda $1083,x
82e9   99 5f 43             sta $435f,y
82ec   c9 c4                cmp #$c4
82ee   f0 36                beq l8326
82f0   8e 03 83             stx $8303
82f3   be 79 44             ldx $4479,y
82f6   b9 7f 44             lda $447f,y
82f9   a8                   tay
82fa   68                   pla
82fb   48                   pha
82fc   20 bf 95             jsr l95bf
82ff   8e 22 83             stx $8322
8302   a0 00                ldy #$00
8304   b9 83 10             lda $1083,y
8307   c9 d3                cmp #$d3
8309   d0 03                bne l830e
830b   20 3d a2             jsr la23d
830e   ad 58 43   l830e     lda $4358
8311   29 04                and #$04
8313   f0 11                beq l8326
8315   68                   pla
8316   48                   pha
8317   cd 5d 43             cmp $435d
831a   d0 05                bne l8321
831c   8e 5e 43             stx $435e
831f   f0 05                beq l8326
8321   a2 00      l8321     ldx #$00
8323   20 3a a2             jsr la23a
8326   68         l8326     pla
8327   38                   sec
8328   e9 01                sbc #$01
832a   10 b3                bpl l82df
832c   ad 58 43             lda $4358
832f   29 04                and #$04
8331   f0 46                beq l8379
8333   38                   sec
8334   6e 57 43             ror $4357
8337   24 78                bit $78
8339   10 3e                bpl l8379
833b   a5 79                lda $79
833d   30 3a                bmi l8379
833f   ad 5d 43             lda $435d
8342   30 35                bmi l8379
8344   0a                   asl a
8345   0a                   asl a
8346   0a                   asl a
8347   0a                   asl a
8348   a8                   tay
8349   b9 82 10             lda $1082,y
834c   c9 c2                cmp #$c2
834e   d0 29                bne l8379
8350   ae 5e 43             ldx $435e
8353   a9 5d                lda #$5d
8355   9d 00 4a             sta $4a00,x
8358   9d 20 4a             sta $4a20,x
835b   a9 00                lda #$00
835d   8d ff 6b             sta $6bff
8360   66 7d                ror $7d
8362   a9 34                lda #$34
8364   48         l8364     pha
8365   20 1b 4c             jsr $4c1b
8368   68                   pla
8369   38                   sec
836a   e9 01                sbc #$01
836c   d0 f6                bne l8364
836e   ae 5e 43             ldx $435e
8371   a9 44                lda #$44
8373   9d 00 4a             sta $4a00,x
8376   9d 20 4a             sta $4a20,x
8379   38         l8379     sec
837a   66 7d                ror $7d
837c   46 75                lsr $75
837e   20 30 4c             jsr $4c30
8381   a9 27                lda #$27
8383   8d 40 43             sta $4340
8386   ad 58 43             lda $4358
8389   29 04                and #$04
838b   d0 03                bne l8390
838d   4c 57 85             jmp l8557
8390   ad a6 83   l8390     lda $83a6
8393   c9 06                cmp #$06
8395   6e 68 43             ror $4368
8398   10 07                bpl l83a1
839a   a5 22                lda $22
839c   f0 03                beq l83a1
839e   4e 68 43             lsr $4368
83a1   a9 00      l83a1     lda #$00
83a3   85 20                sta $20
83a5   a9 00                lda #$00
83a7   18                   clc
83a8   f8                   sed
83a9   65 1e                adc $1e
83ab   c9 24                cmp #$24
83ad   90 02                bcc l83b1
83af   e9 24                sbc #$24
83b1   d8         l83b1     cld
83b2   8d 22 84             sta $8422
83b5   20 8d a6             jsr la68d
83b8   20 06 4c             jsr $4c06
83bb   20 1b 4c   l83bb     jsr $4c1b
83be   20 21 6c             jsr $6c21
83c1   20 30 4c             jsr $4c30
83c4   ad 5b 43             lda $435b
83c7   c9 21                cmp #$21
83c9   b0 08                bcs l83d3
83cb   85 0a                sta $0a
83cd   20 51 4c             jsr $4c51
83d0   38                   sec
83d1   66 0a                ror $0a
83d3   ae 5d 43   l83d3     ldx $435d
83d6   30 47                bmi l841f
83d8   ae 5e 43             ldx $435e
83db   bc 60 4a             ldy $4a60,x
83de   bd 40 4a             lda $4a40,x
83e1   aa                   tax
83e2   20 27 4c             jsr $4c27
83e5   29 03                and #$03
83e7   d0 36                bne l841f
83e9   20 27 4c             jsr $4c27
83ec   4a                   lsr a
83ed   90 0c                bcc l83fb
83ef   20 27 4c             jsr $4c27
83f2   2a                   rol a
83f3   30 02                bmi l83f7
83f5   e8                   inx
83f6   24 ca                bit $ca
83f8   4c 04 84             jmp l8404
83fb   20 27 4c   l83fb     jsr $4c27
83fe   2a                   rol a
83ff   30 02                bmi l8403
8401   c8                   iny
8402   24 88                bit $88
8404   e0 0b      l8404     cpx #$0b
8406   b0 02                bcs l840a
8408   c0 0b                cpy #$0b
840a   b0 13      l840a     bcs l841f
840c   ad 5e 43             lda $435e
840f   20 11 93             jsr l9311
8412   90 0b                bcc l841f
8414   8a                   txa
8415   ae 5e 43             ldx $435e
8418   9d 40 4a             sta $4a40,x
841b   98                   tya
841c   9d 60 4a             sta $4a60,x
841f   a5 1e      l841f     lda $1e
8421   c9 00                cmp #$00
8423   f0 54                beq l8479
8425   8d 30 84             sta $8430
8428   a9 05                lda #$05
842a   20 2d 4c             jsr $4c2d
842d   a5 1e                lda $1e
842f   c9 00                cmp #$00
8431   f0 88                beq l83bb
8433   20 27 4c             jsr $4c27
8436   29 3f                and #$3f
8438   d0 81                bne l83bb
843a   20 00 4c             jsr $4c00
843d   c1 ed                
843f   e2                   
8440   f5 f3                
8442   e8                   
8443   a1 8d                
8445   00                   
8446   a2 04                ldx #$04
8448   20 40 6c             jsr $6c40           ; play song 4
844b   38                   sec
844c   66 71                ror $71
844e   20 27 4c             jsr $4c27
8451   29 07                and #$07
8453   a8                   tay
8454   b9 30 45             lda $4530,y
8457   8d 59 43             sta $4359
845a   2c 5d 43             bit $435d
845d   30 0f                bmi l846e
845f   a2 20                ldx #$20
8461   ca         l8461     dex
8462   8a                   txa
8463   48                   pha
8464   20 a8 a2             jsr la2a8
8467   68                   pla
8468   aa                   tax
8469   d0 f6                bne l8461
846b   20 40 85             jsr l8540
846e   ad 58 43   l846e     lda $4358
8471   29 fb                and #$fb
8473   8d 58 43             sta $4358
8476   4c 79 83             jmp l8379
8479   20 40 85   l8479     jsr l8540
847c   2c 68 43             bit $4368
847f   30 06                bmi l8487
8481   20 66 a6             jsr la666
8484   4c 1f 85             jmp l851f
8487   20 00 4c   l8487     jsr $4c00
848a   d0 e1                bne l846d
848c   f2                   ???                ;%11110010
848d   f4                   ???                ;%11110100
848e   f9 a0 f2             sbc $f2a0,y
8491   e5 f3                sbc $f3
8493   f4                   ???                ;%11110100
8494   e5 e4                sbc $e4
8496   a1 00                lda ($00,x)
8498   a0 05                ldy #$05
849a   20 b4 96   l849a     jsr l96b4
849d   d0 48                bne l84e7
849f   bd 83 10             lda $1083,x
84a2   c9 c4                cmp #$c4
84a4   f0 41                beq l84e7
84a6   c9 d0                cmp #$d0
84a8   f0 3d                beq l84e7
84aa   cc 5d 43             cpy $435d
84ad   f0 38                beq l84e7
84af   20 27 4c   l84af     jsr $4c27
84b2   29 3f                and #$3f
84b4   f0 f9                beq l84af
84b6   20 54 4c             jsr $4c54
84b9   18                   clc
84ba   f8                   sed
84bb   7d 89 10             adc $1089,x
84be   9d 89 10             sta $1089,x
84c1   bd 88 10             lda $1088,x
84c4   69 00                adc #$00
84c6   9d 88 10             sta $1088,x
84c9   d8                   cld
84ca   dd 8a 10             cmp $108a,x
84cd   90 18                bcc l84e7
84cf   f0 02                beq l84d3
84d1   b0 08                bcs l84db
84d3   bd 89 10   l84d3     lda $1089,x
84d6   dd 8b 10             cmp $108b,x
84d9   90 0c                bcc l84e7
84db   bd 8a 10   l84db     lda $108a,x
84de   9d 88 10             sta $1088,x
84e1   bd 8b 10             lda $108b,x
84e4   9d 89 10             sta $1089,x
84e7   88         l84e7     dey
84e8   10 b0                bpl l849a
84ea   a0 05                ldy #$05
84ec   98         l84ec     tya
84ed   cc 5d 43             cpy $435d
84f0   f0 26                beq l8518
84f2   0a                   asl a
84f3   0a                   asl a
84f4   0a                   asl a
84f5   0a                   asl a
84f6   aa                   tax
84f7   bd 82 10             lda $1082,x
84fa   c9 c1                cmp #$c1
84fc   f0 08                beq l8506
84fe   c9 c2                cmp #$c2
8500   f0 09                beq l850b
8502   c9 cd                cmp #$cd
8504   d0 12                bne l8518
8506   bd 86 10   l8506     lda $1086,x
8509   d0 0a                bne l8515
850b   bd 86 10   l850b     lda $1086,x
850e   20 57 4c             jsr $4c57
8511   4a                   lsr a
8512   20 54 4c             jsr $4c54
8515   9d 87 10   l8515     sta $1087,x
8518   88         l8518     dey
8519   10 d1                bpl l84ec
851b   a9 0e                lda #$0e
851d   85 22                sta $22
851f   20 30 4c   l851f     jsr $4c30
8522   ad 58 43             lda $4358
8525   29 82                and #$82
8527   d0 14                bne l853d
8529   2c 68 43             bit $4368
852c   10 0f                bpl l853d
852e   20 27 4c             jsr $4c27
8531   29 03                and #$03
8533   d0 08                bne l853d
8535   a9 57                lda #$57
8537   20 86 1d             jsr $1d86
853a   20 00 a7             jsr la700
853d   4c f4 91   l853d     jmp l91f4
8540   a0 05      l8540     ldy #$05
8542   20 b4 96   l8542     jsr l96b4
8545   d0 0c                bne l8553
8547   b9 5f 43             lda $435f,y
854a   c9 d3                cmp #$d3
854c   d0 02                bne l8550
854e   a9 c7                lda #$c7
8550   9d 83 10   l8550     sta $1083,x
8553   88         l8553     dey
8554   10 ec                bpl l8542
8556   60                   rts
8557   2c 58 43   l8557     bit $4358
855a   10 4f                bpl l85ab
855c   a9 0f                lda #$0f
855e   8d 5a 43             sta $435a
8561   a9 00                lda #$00
8563   8d 9d 85             sta $859d
8566   ae 5a 43   l8566     ldx $435a
8569   bd 00 41             lda $4100,x
856c   48                   pha
856d   bd 85 44             lda $4485,x
8570   bc 95 44             ldy $4495,x
8573   aa                   tax
8574   68                   pla
8575   f0 1b                beq l8592
8577   c9 40                cmp #$40
8579   90 08                bcc l8583
857b   c9 68                cmp #$68
857d   b0 0d                bcs l858c
857f   c9 60                cmp #$60
8581   90 09                bcc l858c
8583   20 2f 96   l8583     jsr l962f
8586   20 d2 a5             jsr la5d2
8589   4c 92 85             jmp l8592
858c   20 e5 95   l858c     jsr l95e5
858f   ee 9d 85             inc $859d
8592   ce 5a 43   l8592     dec $435a
8595   10 cf                bpl l8566
8597   a2 04                ldx #$04
8599   20 40 6c             jsr $6c40  ; play song 4 (combat)
859c   a9 00                lda #$00
859e   d0 08                bne l85a8
85a0   38                   sec
85a1   66 75                ror $75
85a3   a9 01                lda #$01
85a5   20 46 6c             jsr $6c46
85a8   4c 6f 86   l85a8     jmp l866f
85ab   ad 59 43   l85ab     lda $4359
85ae   c9 70                cmp #$70
85b0   f0 12                beq l85c4
85b2   2c 6a 43             bit $436a
85b5   30 0d                bmi l85c4
85b7   ae 5b 43             ldx $435b
85ba   f0 08                beq l85c4
85bc   e0 21                cpx #$21
85be   b0 04                bcs l85c4
85c0   a2 01                ldx #$01
85c2   d0 18                bne l85dc
85c4   a0 06      l85c4     ldy #$06
85c6   20 9e 95             jsr l959e
85c9   aa                   tax
85ca   e0 08                cpx #$08
85cc   f0 0e                beq l85dc
85ce   e0 10                cpx #$10
85d0   f0 0a                beq l85dc
85d2   24 08                bit $08
85d4   10 03                bpl l85d9
85d6   20 db a3             jsr la3db
85d9   20 db a3   l85d9     jsr la3db
85dc   8e 5a 43   l85dc     stx $435a
85df   a2 0f                ldx #$0f
85e1   bd 4d 47   l85e1     lda $474d,x
85e4   48                   pha
85e5   20 27 4c             jsr $4c27
85e8   29 0f                and #$0f
85ea   a8                   tay
85eb   b9 4d 47             lda $474d,y
85ee   9d 4d 47             sta $474d,x
85f1   68                   pla
85f2   99 4d 47             sta $474d,y
85f5   ca                   dex
85f6   10 e9                bpl l85e1
85f8   20 8d 93             jsr l938d
85fb   8e 2a 86             stx $862a
85fe   ac 5a 43             ldy $435a
8601   8c 15 86   l8601     sty $8615
8604   be 4c 47             ldx $474c,y
8607   bd 85 44             lda $4485,x
860a   bc 95 44             ldy $4495,x
860d   aa                   tax
860e   ad 59 43             lda $4359
8611   20 e5 95             jsr l95e5
8614   a0 00                ldy #$00
8616   88                   dey
8617   d0 e8                bne l8601
8619   ad 5a 43             lda $435a
861c   4a                   lsr a
861d   4a                   lsr a
861e   18                   clc
861f   69 01                adc #$01
8621   8d 5a 43             sta $435a
8624   a0 1f      l8624     ldy #$1f
8626   8c 66 86   l8626     sty $8666
8629   c0 ff                cpy #$ff
862b   f0 38                beq l8665
862d   20 27 4c             jsr $4c27
8630   29 07                and #$07
8632   d0 31                bne l8665
8634   b9 20 40             lda $4020,y
8637   29 40                and #$40
8639   f0 2a                beq l8665
863b   b9 40 4a             lda $4a40,y
863e   8d 5f 86             sta $865f
8641   b9 60 4a             lda $4a60,y
8644   8d 61 86             sta $8661
8647   b9 00 4a             lda $4a00,y
864a   20 ea 96             jsr l96ea
864d   aa                   tax
864e   bd b9 bd             lda $bdb9,x
8651   f0 12                beq l8665
8653   d9 00 4a             cmp $4a00,y
8656   f0 0d                beq l8665
8658   20 be 96             jsr l96be
865b   bd b9 bd             lda $bdb9,x
865e   a2 00                ldx #$00
8660   a0 00                ldy #$00
8662   20 e5 95             jsr l95e5
8665   a0 00      l8665     ldy #$00
8667   88                   dey
8668   10 bc                bpl l8626
866a   ce 5a 43             dec $435a
866d   d0 b5                bne l8624
866f   20 1b 4c   l866f     jsr $4c1b
8672   a9 1f      l8672     lda #$1f
8674   85 7d                sta $7d
8676   a6 7d      l8676     ldx $7d
8678   8e 65 43             stx $4365
867b   bd 20 40             lda $4020,x
867e   29 c0                and #$c0
8680   f0 4f                beq l86d1
8682   bd 20 40             lda $4020,x
8685   29 20                and #$20
8687   d0 48                bne l86d1
8689   20 ed 47             jsr $47ed
868c   29 fe                and #$fe
868e   c9 84                cmp #$84
8690   f0 3f                beq l86d1
8692   de 00 40             dec $4000,x
8695   d0 3a                bne l86d1
8697   a9 24                lda #$24
8699   38                   sec
869a   fd 40 40             sbc $4040,x
869d   9d 00 40             sta $4000,x
86a0   a9 00                lda #$00
86a2   85 7f                sta $7f
86a4   8d 51 43             sta $4351
86a7   8d 52 43             sta $4352
86aa   8d 53 43             sta $4353
86ad   8d 42 43             sta $4342
86b0   8d 50 43             sta $4350
86b3   8d 43 43             sta $4343
86b6   85 73                sta $73
86b8   8d 47 a4             sta $a447
86bb   20 42 87             jsr l8742
86be   a6 7d                ldx $7d
86c0   38                   sec
86c1   7e 40 41             ror $4140,x
86c4   20 2b a3             jsr la32b
86c7   20 bd a0             jsr la0bd
86ca   f0 53                beq l871f
86cc   20 9a a0             jsr la09a
86cf   f0 0f                beq l86e0
86d1   ad 65 43   l86d1     lda $4365
86d4   85 7d                sta $7d
86d6   c6 7d                dec $7d
86d8   10 03                bpl l86dd
86da   4c 72 86             jmp l8672
86dd   4c 76 86   l86dd     jmp l8676
86e0   24 75      l86e0     bit $75
86e2   30 ed                bmi l86d1
86e4   38                   sec
86e5   66 75                ror $75
86e7   20 00 4c             jsr $4c00
86ea   8d d6 c9             sta $c9d6
86ed   c3                   ???                ;%11000011
86ee   d4                   ???                ;%11010100
86ef   cf                   ???                ;%11001111
86f0   d2                   ???                ;%11010010
86f1   d9 a1 8d             cmp $8da1,y
86f4   00                   brk
86f5   a5 c8                lda $c8
86f7   10 08                bpl l8701          ; branch if c64
86f9   a2 01                ldx #$01
86fb   20 40 6c             jsr $6c40          ; play song 1
86fe   4c 19 87             jmp l8719
8701   a0 00      l8701     ldy #$00           ; play victory
8703   84 88      l8703     sty $88
8705   be 5d 47             ldx $475d,y
8708   f0 0f                beq l8719
870a   b9 5e 47             lda $475e,y
870d   a8                   tay
870e   a9 02                lda #$02
8710   20 4b 4c             jsr $4c4b          ; sound effect
8713   a4 88                ldy $88
8715   c8                   iny
8716   c8                   iny
8717   d0 ea                bne l8703
8719   20 2a 4c   l8719     jsr $4c2a
871c   4c d1 86             jmp l86d1
871f   20 04 a5   l871f     jsr la504
8722   30 ad                bmi l86d1
8724   20 1b 4c             jsr $4c1b
8727   24 75                bit $75
8729   30 14                bmi l873f
872b   20 00 4c             jsr $4c00
872e   8d c2 c1             sta $c1c2
8731   d4                   ???                ;%11010100
8732   d4                   ???                ;%11010100
8733   cc c5 a0             cpy $a0c5
8736   c9 d3                cmp #$d3
8738   a0 cc                ldy #$cc
873a   cf                   ???                ;%11001111
873b   d3                   ???                ;%11010011
873c   d4                   ???                ;%11010100
873d   a1 00                lda ($00,x)
873f   4c f4 91   l873f     jmp l91f4
8742   20 e9 bd   l8742     jsr $bde9
8745   38                   sec
8746   66 9b                ror $9b
8748   a6 7d                ldx $7d
874a   20 0c 94             jsr l940c
874d   90 03                bcc l8752
874f   4c de 8f             jmp l8fde
8752   a6 7d      l8752     ldx $7d
8754   a5 2c                lda $2c
8756   30 0d                bmi l8765
8758   bc 20 40             ldy $4020,x
875b   10 05                bpl l8762
875d   dd c0 4a             cmp $4ac0,x
8760   f0 03                beq l8765
8762   4c d5 8f   l8762     jmp l8fd5
8765   bd 20 40   l8765     lda $4020,x
8768   10 39                bpl l87a3
876a   20 b1 96             jsr l96b1
876d   bd 83 10             lda $1083,x
8770   a6 7d                ldx $7d
8772   c9 c4                cmp #$c4
8774   d0 0a                bne l8780
8776   86 7e                stx $7e
8778   20 18 6c             jsr $6c18
877b   a9 63                lda #$63
877d   4c bc 99             jmp l99bc
8780   20 d5 9f   l8780     jsr l9fd5
8783   aa                   tax
8784   a0 05                ldy #$05
8786   bd 90 11   l8786     lda $1190,x
8789   c9 24                cmp #$24
878b   d0 12                bne l879f
878d   66 2c                ror $2c
878f   a6 7d                ldx $7d
8791   bd 20 40             lda $4020,x
8794   09 01                ora #$01
8796   9d 20 40             sta $4020,x
8799   20 30 4c             jsr $4c30
879c   4c de 8f             jmp l8fde
879f   e8         l879f     inx
87a0   88                   dey
87a1   10 e3                bpl l8786
87a3   20 2e a4   l87a3     jsr la42e
87a6   20 9b 93             jsr l939b
87a9   a6 7d                ldx $7d
87ab   20 00 97             jsr l9700
87ae   a9 00                lda #$00
87b0   8d 66 43             sta $4366
87b3   a6 7d                ldx $7d
87b5   bd 20 40             lda $4020,x
87b8   10 5d                bpl l8817
87ba   a9 03                lda #$03
87bc   20 ba 93             jsr l93ba
87bf   a6 7d                ldx $7d
87c1   20 d5 9f             jsr l9fd5
87c4   8d cc 87             sta $87cc
87c7   a9 05                lda #$05
87c9   48         l87c9     pha
87ca   18                   clc
87cb   69 00                adc #$00
87cd   aa                   tax
87ce   bc 90 11             ldy $1190,x
87d1   f0 22                beq l87f5
87d3   88                   dey
87d4   b9 a0 46             lda $46a0,y
87d7   f0 1c                beq l87f5
87d9   8c ee 87             sty $87ee
87dc   ad 66 43             lda $4366
87df   f0 08                beq l87e9
87e1   a9 ac                lda #$ac
87e3   20 03 4c             jsr $4c03
87e6   20 9e 93             jsr l939e
87e9   a2 98      l87e9     ldx #$98
87eb   a0 45                ldy #$45
87ed   a9 00                lda #$00
87ef   20 be 93             jsr l93be
87f2   ee 66 43             inc $4366
87f5   68         l87f5     pla
87f6   38                   sec
87f7   e9 01                sbc #$01
87f9   10 ce                bpl l87c9
87fb   ad 66 43             lda $4366
87fe   d0 17                bne l8817
8800   a5 c9                lda $c9
8802   c9 1e                cmp #$1e
8804   90 03                bcc l8809
8806   20 06 4c             jsr $4c06
8809   20 00 4c   l8809     jsr $4c00
880c   e2                   ???                ;%11100010
880d   e1 f2                sbc ($f2,x)
880f   e5 a0                sbc $a0
8811   e8                   inx
8812   e1 ee                sbc ($ee,x)
8814   e4 f3                cpx $f3
8816   00                   brk
8817   a9 ba      l8817     lda #$ba
8819   20 a0 93             jsr l93a0
881c   20 00 4c   l881c     jsr $4c00
881f   8d 1e 00             sta $001e
8822   a6 7d                ldx $7d
8824   bd 20 40             lda $4020,x
8827   29 04                and #$04
8829   f0 21                beq l884c
882b   20 00 4c             jsr $4c00
882e   c1 d2                cmp ($d2,x)
8830   c7                   ???                ;%11000111
8831   c8                   iny
8832   a1 8d                lda ($8d,x)
8834   00                   brk
8835   20 2e a4             jsr la42e
8838   a9 05                lda #$05
883a   48         l883a     pha
883b   a9 0d                lda #$0d
883d   20 4b 4c             jsr $4c4b
8840   68                   pla
8841   38                   sec
8842   e9 01                sbc #$01
8844   d0 f4                bne l883a
8846   20 a0 a4             jsr la4a0
8849   4c cc 8f             jmp l8fcc
884c   bd 20 40   l884c     lda $4020,x
884f   29 08                and #$08
8851   f0 0c                beq l885f
8853   20 2e a4             jsr la42e
8856   20 9e a2             jsr la29e
8859   20 8d a6             jsr la68d
885c   4c cc 8f             jmp l8fcc
885f   20 15 4c   l885f     jsr $4c15
8862   20 37 97             jsr l9737
8865   8d 54 43             sta $4354
8868   20 48 97             jsr l9748
886b   b0 54                bcs l88c1
886d   a0 24                ldy #$24
886f   d9 93 47   l886f     cmp $4793,y
8872   f0 10                beq l8884
8874   88                   dey
8875   10 f8                bpl l886f
8877   20 00 4c             jsr $4c00
887a   d7                   ???                ;%11010111
887b   e8                   inx
887c   e1 f4                sbc ($f4,x)
887e   bf                   ???                ;%10111111
887f   8d 00 4c             sta $4c00
8882   1c                   ???                ;%00011100
8883   88                   dey
8884   c0 17      l8884     cpy #$17
8886   90 21                bcc l88a9
8888   98                   tya
8889   e9 17                sbc #$17
888b   69 1d                adc #$1d
888d   20 ba 93             jsr l93ba
8890   20 00 4c             jsr $4c00
8893   ad ce ef             lda $efce
8896   f4                   ???                ;%11110100
8897   a0 e8                ldy #$e8
8899   e5 f2                sbc $f2
889b   e5 a1                sbc $a1
889d   8d 00 a2             sta $a200
88a0   50 a9                bvc l884b
88a2   09 20                ora #$20
88a4   4b                   ???                ;%01001011 'K'
88a5   4c 4c 1c             jmp $1c4c
88a8   88                   dey
88a9   8d 67 43   l88a9     sta $4367
88ac   98                   tya
88ad   0a                   asl a
88ae   a8                   tay
88af   b9 b9 47             lda $47b9,y
88b2   8d c0 88             sta $88c0
88b5   b9 b8 47             lda $47b8,y
88b8   8d bf 88             sta $88bf
88bb   20 2e a4             jsr la42e
88be   4c ff ff             jmp $ffff
88c1   a6 7d      l88c1     ldx $7d
88c3   bd 60 4a             lda $4a60,x
88c6   18                   clc
88c7   65 a8                adc $a8
88c9   c9 0b                cmp #$0b
88cb   b0 43                bcs l8910
88cd   a8                   tay
88ce   bd 40 4a             lda $4a40,x
88d1   18                   clc
88d2   65 a7                adc $a7
88d4   c9 0b                cmp #$0b
88d6   b0 38                bcs l8910
88d8   aa                   tax
88d9   a5 7d                lda $7d
88db   20 11 93             jsr l9311
88de   b0 18                bcs l88f8
88e0   20 00 4c             jsr $4c00
88e3   c2                   ???                ;%11000010
88e4   ec ef e3             cpx $e3ef
88e7   eb                   ???                ;%11101011
88e8   e5 e4                sbc $e4
88ea   a1 8d                lda ($8d,x)
88ec   00                   brk
88ed   a9 08      l88ed     lda #$08
88ef   20 4b 4c             jsr $4c4b
88f2   20 2a 4c             jsr $4c2a
88f5   4c 1c 88             jmp l881c
88f8   8a         l88f8     txa
88f9   a6 7d                ldx $7d
88fb   9d 40 4a             sta $4a40,x
88fe   98                   tya
88ff   9d 60 4a             sta $4a60,x
8902   a9 07                lda #$07
8904   20 4b 4c             jsr $4c4b
8907   20 48 9f             jsr l9f48
890a   20 2e a4             jsr la42e
890d   4c cc 8f             jmp l8fcc
8910   a5 0c      l8910     lda $0c
8912   29 f8                and #$f8
8914   c9 20                cmp #$20
8916   d0 18                bne l8930
8918   20 00 4c             jsr $4c00
891b   8d d3 f4             sta $f4d3
891e   e1 f9                sbc ($f9,x)
8920   a0 f7                ldy #$f7
8922   e9 f4                sbc #$f4
8924   e8                   inx
8925   a0 f3                ldy #$f3
8927   e8                   inx
8928   e9 f0                sbc #$f0
892a   a1 8d                lda ($8d,x)
892c   00                   brk
892d   4c 1c 88             jmp l881c
8930   a6 7d      l8930     ldx $7d
8932   bd 20 40             lda $4020,x
8935   10 0b                bpl l8942
8937   ad 55 43             lda $4355
893a   d0 1a                bne l8956
893c   ad 54 43             lda $4354
893f   8d 55 43             sta $4355
8942   46 9b      l8942     lsr $9b
8944   20 9a a0             jsr la09a
8947   d0 39                bne l8982
8949   20 00 4c             jsr $4c00
894c   cc e5 e1             cpy $e1e5
894f   f6 e5                inc $e5,x
8951   a1 00                lda ($00,x)
8953   4c 8d 89             jmp l898d
8956   cd 54 43   l8956     cmp $4354
8959   f0 e7                beq l8942
895b   ad 58 43             lda $4358
895e   29 02                and #$02
8960   f0 e0                beq l8942
8962   20 00 4c             jsr $4c00
8965   8d c1 ec             sta $ecc1
8968   ec a0 ed             cpx $eda0
896b   f5 f3                sbc $f3,x
896d   f4                   ???                ;%11110100
896e   a0 f5                ldy #$f5
8970   f3                   ???                ;%11110011
8971   e5 8d                sbc $8d
8973   f3                   ???                ;%11110011
8974   e1 ed                sbc ($ed,x)
8976   e5 a0                sbc $a0
8978   e5 f8                sbc $f8
897a   e9 f4                sbc #$f4
897c   a1 8d                lda ($8d,x)
897e   00                   brk
897f   4c ed 88             jmp l88ed
8982   20 00 4c   l8982     jsr $4c00
8985   c5 f3                cmp $f3
8987   e3                   ???                ;%11100011
8988   e1 f0                sbc ($f0,x)
898a   e5 a1                sbc $a1
898c   00                   brk
898d   20 2e a4   l898d     jsr la42e
8990   a9 13                lda #$13
8992   20 4b 4c             jsr $4c4b
8995   38                   sec
8996   66 2c                ror $2c
8998   20 30 4c             jsr $4c30
899b   a4 7d                ldy $7d
899d   20 be 96             jsr l96be
89a0   20 1b 4c             jsr $4c1b
89a3   20 bd a0             jsr la0bd
89a6   d0 10                bne l89b8
89a8   86 7d                stx $7d
89aa   20 9a a0             jsr la09a
89ad   f0 06                beq l89b5
89af   20 06 4c             jsr $4c06
89b2   4c 1f 87             jmp l871f
89b5   4c f4 91   l89b5     jmp l91f4
89b8   20 06 4c   l89b8     jsr $4c06
89bb   4c cc 8f             jmp l8fcc
89be   20 00 4c             jsr $4c00
89c1   c5 f3                cmp $f3
89c3   e3                   ???                ;%11100011
89c4   e1 f0                sbc ($f0,x)
89c6   e5 00                sbc $00
89c8   2c 58 43             bit $4358
89cb   10 12                bpl l89df
89cd   20 00 4c             jsr $4c00
89d0   ad ce ef             lda $efce
89d3   f4                   ???                ;%11110100
89d4   8d e8 e5             sta $e5e8
89d7   f2                   ???                ;%11110010
89d8   e5 a1                sbc $a1
89da   8d 00 4c             sta $4c00
89dd   52                   ???                ;%01010010 'R'
89de   87                   ???                ;%10000111
89df   24 75      l89df     bit $75
89e1   30 11                bmi l89f4
89e3   20 00 4c             jsr $4c00
89e6   ad ce ef             lda $efce
89e9   f4                   ???                ;%11110100
89ea   a0 f9                ldy #$f9
89ec   e5 f4                sbc $f4
89ee   a1 8d                lda ($8d,x)
89f0   00                   brk
89f1   4c 52 87             jmp l8752
89f4   a9 a1      l89f4     lda #$a1
89f6   20 03 4c             jsr $4c03
89f9   a0 1f                ldy #$1f
89fb   b9 00 4a   l89fb     lda $4a00,y
89fe   f0 0a                beq l8a0a
8a00   20 be 96             jsr l96be
8a03   98                   tya
8a04   48                   pha
8a05   20 1b 4c             jsr $4c1b
8a08   68                   pla
8a09   a8                   tay
8a0a   88         l8a0a     dey
8a0b   10 ee                bpl l89fb
8a0d   a9 13                lda #$13
8a0f   20 4b 4c             jsr $4c4b
8a12   4c f4 91             jmp l91f4
8a15   a6 7d                ldx $7d
8a17   bd 20 40             lda $4020,x
8a1a   10 05                bpl l8a21
8a1c   ae 66 43             ldx $4366
8a1f   d0 05                bne l8a26
8a21   38         l8a21     sec
8a22   66 7f                ror $7f
8a24   30 19                bmi l8a3f
8a26   e0 02      l8a26     cpx #$02
8a28   b0 1e                bcs l8a48
8a2a   a6 7d                ldx $7d
8a2c   20 d5 9f             jsr l9fd5
8a2f   aa                   tax
8a30   ca                   dex
8a31   e8         l8a31     inx
8a32   bc 90 11             ldy $1190,x
8a35   f0 fa                beq l8a31
8a37   88                   dey
8a38   b9 a0 46             lda $46a0,y
8a3b   f0 f4                beq l8a31
8a3d   84 7f                sty $7f
8a3f   20 75 a6   l8a3f     jsr la675
8a42   20 92 8a             jsr l8a92
8a45   4c cc 8f             jmp l8fcc
8a48   a6 7d      l8a48     ldx $7d
8a4a   20 d5 9f             jsr l9fd5
8a4d   8d 5c 8a             sta $8a5c
8a50   c6 c9                dec $c9
8a52   a9 a0                lda #$a0
8a54   20 03 4c             jsr $4c03
8a57   a9 05                lda #$05
8a59   48         l8a59     pha
8a5a   18                   clc
8a5b   69 00                adc #$00
8a5d   aa                   tax
8a5e   bc 90 11             ldy $1190,x
8a61   f0 26                beq l8a89
8a63   88                   dey
8a64   b9 a0 46             lda $46a0,y
8a67   f0 20                beq l8a89
8a69   84 7f                sty $7f
8a6b   8c 51 43             sty $4351
8a6e   8c 52 43             sty $4352
8a71   20 9b 93             jsr l939b
8a74   a2 98                ldx #$98
8a76   a0 45                ldy #$45
8a78   a5 7f                lda $7f
8a7a   20 be 93             jsr l93be
8a7d   20 00 4c             jsr $4c00
8a80   ba                   tsx
8a81   8d 00 20             sta $2000
8a84   75 a6                adc $a6,x
8a86   20 92 8a             jsr l8a92
8a89   68         l8a89     pla
8a8a   38                   sec
8a8b   e9 01                sbc #$01
8a8d   10 ca                bpl l8a59
8a8f   4c cc 8f             jmp l8fcc
8a92   a6 7d      l8a92     ldx $7d
8a94   bd 20 40             lda $4020,x
8a97   30 12                bmi l8aab
8a99   bd 00 4a             lda $4a00,x
8a9c   20 ea 96             jsr l96ea
8a9f   a8                   tay
8aa0   b9 00 45             lda $4500,y
8aa3   c9 01                cmp #$01
8aa5   d0 0b                bne l8ab2
8aa7   a9 00                lda #$00
8aa9   f0 07                beq l8ab2
8aab   a6 7f      l8aab     ldx $7f
8aad   30 15                bmi l8ac4
8aaf   bd 07 47             lda $4707,x
8ab2   8d 41 43   l8ab2     sta $4341
8ab5   48                   pha
8ab6   4a                   lsr a
8ab7   4a                   lsr a
8ab8   4a                   lsr a
8ab9   4a                   lsr a
8aba   8d 44 43             sta $4344
8abd   68                   pla
8abe   29 0f                and #$0f
8ac0   85 a5                sta $a5
8ac2   d0 54                bne l8b18
8ac4   20 9c a6   l8ac4     jsr la69c
8ac7   a9 01                lda #$01
8ac9   85 a5                sta $a5
8acb   20 e4 9d             jsr l9de4
8ace   b0 18                bcs l8ae8
8ad0   a6 7d                ldx $7d
8ad2   38                   sec
8ad3   7e a0 41             ror $41a0,x
8ad6   a6 9c                ldx $9c
8ad8   a4 9e                ldy $9e
8ada   20 92 9b             jsr l9b92
8add   b0 09                bcs l8ae8
8adf   85 7e                sta $7e
8ae1   a6 7d                ldx $7d
8ae3   9d a0 41             sta $41a0,x
8ae6   90 0a                bcc l8af2
8ae8   20 81 a6   l8ae8     jsr la681
8aeb   20 00 4c             jsr $4c00
8aee   a1 8d                lda ($8d,x)
8af0   00                   brk
8af1   60                   rts
8af2   a9 0b      l8af2     lda #$0b
8af4   20 4b 4c             jsr $4c4b
8af7   20 9b 93             jsr l939b
8afa   a6 7e                ldx $7e
8afc   20 40 95             jsr l9540
8aff   b0 03                bcs l8b04
8b01   4c 25 99             jmp l9925
8b04   18         l8b04     clc
8b05   a6 7e                ldx $7e
8b07   20 18 6c             jsr $6c18
8b0a   20 56 99             jsr l9956
8b0d   20 e1 9f             jsr l9fe1
8b10   4c 3e a4             jmp la43e
8b13   1a                   ???                ;%00011010
8b14   1c                   ???                ;%00011100
8b15   24 13                bit $13
8b17   11 a5                ora ($a5),y
8b19   7f                   ???                ;%01111111
8b1a   a2 05                ldx #$05
8b1c   ca         l8b1c     dex
8b1d   30 0a                bmi l8b29
8b1f   dd 13 8b             cmp $8b13,x
8b22   d0 f8                bne l8b1c
8b24   20 ce a4             jsr la4ce
8b27   b0 08                bcs l8b31
8b29   20 9c a6   l8b29     jsr la69c
8b2c   20 e4 9d             jsr l9de4
8b2f   90 01                bcc l8b32
8b31   60         l8b31     rts
8b32   a9 0a      l8b32     lda #$0a
8b34   20 4b 4c             jsr $4c4b
8b37   a5 7f                lda $7f
8b39   c9 13                cmp #$13
8b3b   d0 03                bne l8b40
8b3d   20 bc a5             jsr la5bc
8b40   a6 7d      l8b40     ldx $7d
8b42   38                   sec
8b43   7e a0 41             ror $41a0,x
8b46   a6 9c                ldx $9c
8b48   86 8c                stx $8c
8b4a   a4 9e                ldy $9e
8b4c   84 8d                sty $8d
8b4e   38                   sec
8b4f   6e 6f 8b             ror $8b6f
8b52   20 92 9b             jsr l9b92
8b55   b0 10                bcs l8b67
8b57   85 7e                sta $7e
8b59   8d 6f 8b             sta $8b6f
8b5c   a6 7d                ldx $7d
8b5e   9d a0 41             sta $41a0,x
8b61   20 4b a5             jsr la54b
8b64   20 40 95             jsr l9540
8b67   20 ba 9e   l8b67     jsr l9eba
8b6a   a6 7e                ldx $7e
8b6c   10 0f                bpl l8b7d
8b6e   a2 00                ldx #$00
8b70   30 1d                bmi l8b8f
8b72   86 7e                stx $7e
8b74   20 9b 93             jsr l939b
8b77   20 25 99             jsr l9925
8b7a   4c 8f 8b             jmp l8b8f
8b7d   18         l8b7d     clc
8b7e   a6 7e                ldx $7e
8b80   20 18 6c             jsr $6c18
8b83   20 9b 93             jsr l939b
8b86   20 56 99             jsr l9956
8b89   20 e1 9f             jsr l9fe1
8b8c   20 3e a4             jsr la43e
8b8f   a5 7f      l8b8f     lda $7f
8b91   c9 26                cmp #$26
8b93   d0 03      l8b93     bne l8b98
8b95   20 0f 6c             jsr $6c0f
8b98   60         l8b98     rts
8b99   20 00 4c             jsr $4c00
8b9c   d0 f5                bne l8b93
8b9e   f3                   ???                ;%11110011
8b9f   e8                   inx
8ba0   ad 00 20             lda $2000
8ba3   3f                   ???                ;%00111111 '?'
8ba4   4c f0 15             jmp $15f0
8ba7   20 83 8f             jsr l8f83
8baa   20 39 4c             jsr $4c39
8bad   a6 a9                ldx $a9
8baf   a4 aa                ldy $aa
8bb1   20 51 9f             jsr l9f51
8bb4   30 06                bmi l8bbc
8bb6   20 29 a6             jsr la629
8bb9   20 0c a7             jsr la70c
8bbc   4c cc 8f   l8bbc     jmp l8fcc
8bbf   20 83 8f             jsr l8f83
8bc2   20 00 4c             jsr $4c00
8bc5   d5 f3                cmp $f3,x
8bc7   e5 ae                sbc $ae
8bc9   ae ae 8d             ldx $8dae
8bcc   00                   brk
8bcd   20 ac 8f             jsr l8fac
8bd0   a9 ff                lda #$ff
8bd2   8d 52 43             sta $4352
8bd5   8d 51 43             sta $4351
8bd8   a9 55                lda #$55
8bda   20 86 1d   l8bda     jsr $1d86
8bdd   20 00 a7             jsr la700
8be0   4c cc 8f             jmp l8fcc
8be3   20 00 4c             jsr $4c00
8be6   d9 e5 ec             cmp $ece5,y
8be9   ec a0 f7             cpx $f7a0
8bec   e8                   inx
8bed   e1 f4                sbc ($f4,x)
8bef   bf                   ???                ;%10111111
8bf0   8d 00 20             sta $2000
8bf3   96 4c                stx $4c,y
8bf5   20 06 4c             jsr $4c06
8bf8   20 66 a6             jsr la666
8bfb   4c cc 8f             jmp l8fcc
8bfe   20 83 8f             jsr l8f83
8c01   20 00 4c             jsr $4c00
8c04   c3                   ???                ;%11000011
8c05   e1 f3                sbc ($f3,x)
8c07   f4                   ???                ;%11110100
8c08   ae ae ae             ldx $aeae
8c0b   8d 00 20             sta $2000
8c0e   ac 8f 20             ldy $208f
8c11   ce a4 90             dec $90a4
8c14   03                   ???                ;%00000011
8c15   4c 52 87             jmp l8752
8c18   a5 20                lda $20
8c1a   c9 ce                cmp #$ce
8c1c   f0 0c                beq l8c2a
8c1e   2c f9 11             bit $11f9
8c21   30 21                bmi l8c44
8c23   ad 5b 43             lda $435b
8c26   c9 12                cmp #$12
8c28   d0 1a                bne l8c44
8c2a   20 00 4c   l8c2a     jsr $4c00
8c2d   c1 e2                cmp ($e2,x)
8c2f   f3                   ???                ;%11110011
8c30   ef                   ???                ;%11101111
8c31   f2                   ???                ;%11110010
8c32   e2                   ???                ;%11100010
8c33   e5 e4                sbc $e4
8c35   a1 8d                lda ($8d,x)
8c37   00                   brk
8c38   a2 38                ldx #$38
8c3a   a0 40                ldy #$40
8c3c   a9 02                lda #$02
8c3e   20 4b 4c             jsr $4c4b
8c41   4c cc 8f             jmp l8fcc
8c44   a9 ff      l8c44     lda #$ff
8c46   8d 52 43             sta $4352
8c49   8d 51 43             sta $4351
8c4c   a9 43                lda #$43
8c4e   4c da 8b             jmp l8bda
8c51   20 83 8f             jsr l8f83
8c54   20 00 4c             jsr $4c00
8c57   c7                   ???                ;%11000111
8c58   e5 f4                sbc $f4
8c5a   ad 00 20             lda $2000
8c5d   ac 8f 20             ldy $208f
8c60   3f                   ???                ;%00111111 '?'
8c61   4c f0 40             jmp $40f0
8c64   20 9c 8f             jsr l8f9c
8c67   b9 00 48             lda $4800,y
8c6a   f0 32                beq l8c9e
8c6c   29 fe                and #$fe
8c6e   c9 b0                cmp #$b0
8c70   d0 19                bne l8c8b
8c72   a9 44                lda #$44
8c74   99 00 44             sta $4400,y
8c77   20 00 4c             jsr $4c00
8c7a   c1 a0
8c7c   f4   
8c7d   ef   
8c7e   f2   
8c7f   e3   
8c80   e8   
8c81   a1 8d
8c83   00   
8c84   a9 64                lda #$64
8c86   85 10                sta $10
8c88   4c cc 8f             jmp l8fcc
8c8b   20 81 a6   l8c8b     jsr la681
8c8e   20 00 4c             jsr $4c00
8c91   a0 f4                ldy #$f4
8c93   ef                   ???                ;%11101111
8c94   a0 e7                ldy #$e7
8c96   e5 f4                sbc $f4
8c98   a1 8d                lda ($8d,x)
8c9a   00                   brk
8c9b   4c cc 8f             jmp l8fcc
8c9e   20 29 a6   l8c9e     jsr la629
8ca1   20 09 a7             jsr la709
8ca4   4c cc 8f             jmp l8fcc
8ca7   20 83 8f             jsr l8f83
8caa   20 00 4c             jsr $4c00
8cad   ca                   dex
8cae   e9 ed                sbc #$ed
8cb0   ed f9 ad             sbc $adf9
8cb3   00                   brk
8cb4   20 ac 8f             jsr l8fac
8cb7   ad 84 11             lda $1184
8cba   d0 10                bne l8ccc
8cbc   20 00 4c             jsr $4c00
8cbf   ce ef a0             dec $a0ef
8cc2   eb                   ???                ;%11101011
8cc3   e5 f9                sbc $f9
8cc5   f3                   ???                ;%11110011
8cc6   a1 8d                lda ($8d,x)
8cc8   00                   brk
8cc9   4c 3d 8d             jmp l8d3d
8ccc   20 3f 4c   l8ccc     jsr $4c3f
8ccf   f0 6c                beq l8d3d
8cd1   20 9c 8f             jsr l8f9c
8cd4   ca                   dex
8cd5   f0 60                beq l8d37
8cd7   20 9b 93             jsr l939b
8cda   b9 00 44             lda $4400,y
8cdd   c9 97                cmp #$97
8cdf   f0 5f                beq l8d40
8ce1   c9 98                cmp #$98
8ce3   f0 5b                beq l8d40
8ce5   c9 b9                cmp #$b9
8ce7   f0 1a                beq l8d03
8ce9   c9 bb                cmp #$bb
8ceb   f0 16                beq l8d03
8ced   29 fe                and #$fe
8cef   c9 84                cmp #$84
8cf1   f0 10                beq l8d03
8cf3   20 00 4c             jsr $4c00
8cf6   ce ef a0             dec $a0ef
8cf9   ec ef e3             cpx $e3ef
8cfc   eb                   ???                ;%11101011
8cfd   a1 8d                lda ($8d,x)
8cff   00                   brk
8d00   4c 3d 8d             jmp l8d3d
8d03   48         l8d03     pha
8d04   98                   tya
8d05   48                   pha
8d06   a6 7d                ldx $7d
8d08   20 a9 97             jsr l97a9
8d0b   8d 12 8d             sta $8d12
8d0e   20 72 4c             jsr $4c72
8d11   c9 ff                cmp #$ff
8d13   68                   pla
8d14   a8                   tay
8d15   68                   pla
8d16   b0 28                bcs l8d40
8d18   c9 86                cmp #$86
8d1a   b9 00 44             lda $4400,y
8d1d   29 fe                and #$fe
8d1f   b0 02                bcs l8d23
8d21   a9 44                lda #$44
8d23   99 00 44   l8d23     sta $4400,y
8d26   20 00 4c             jsr $4c00
8d29   d5 ee                cmp $ee,x
8d2b   ec ef e3             cpx $e3ef
8d2e   eb                   ???                ;%11101011
8d2f   e5 e4                sbc $e4
8d31   a1 8d                lda ($8d,x)
8d33   00                   brk
8d34   4c cc 8f             jmp l8fcc
8d37   20 29 a6   l8d37     jsr la629
8d3a   20 03 a7             jsr la703
8d3d   4c cc 8f   l8d3d     jmp l8fcc
8d40   20 00 4c   l8d40     jsr $4c00
8d43   cb                   ???                ;%11001011
8d44   e5 f9                sbc $f9
8d46   a0 e2                ldy #$e2
8d48   f2                   ???                ;%11110010
8d49   ef                   ???                ;%11101111
8d4a   eb                   ???                ;%11101011
8d4b   e5 a1                sbc $a1
8d4d   8d 00 ad             sta $ad00
8d50   84 11                sty $11
8d52   f8                   sed
8d53   38                   sec
8d54   e9 01                sbc #$01
8d56   8d 84 11             sta $1184
8d59   d8                   cld
8d5a   4c cc 8f             jmp l8fcc
8d5d   20 00 4c             jsr $4c00
8d60   cb                   ???                ;%11001011
8d61   ec e9 ed             cpx $ede9
8d64   e2                   ???                ;%11100010
8d65   ad 00 20             lda $2000
8d68   83                   ???                ;%10000011
8d69   8f                   ???                ;%10001111
8d6a   20 21 4c             jsr $4c21
8d6d   c9 c8                cmp #$c8
8d6f   f0 45                beq l8db6
8d71   c9 c9                cmp #$c9
8d73   f0 75                beq l8dea
8d75   2c 58 43             bit $4358
8d78   10 04                bpl l8d7e
8d7a   c9 86                cmp #$86
8d7c   f0 6c                beq l8dea
8d7e   20 3f 4c   l8d7e     jsr $4c3f
8d81   20 39 4c             jsr $4c39
8d84   20 1e 4c             jsr $4c1e
8d87   c9 4c                cmp #$4c
8d89   d0 1e                bne l8da9
8d8b   20 39 4c             jsr $4c39
8d8e   a6 a9                ldx $a9
8d90   a4 aa                ldy $aa
8d92   20 92 9b             jsr l9b92
8d95   90 12                bcc l8da9
8d97   a5 a9                lda $a9
8d99   a6 7d                ldx $7d
8d9b   9d 40 4a             sta $4a40,x
8d9e   a5 aa                lda $aa
8da0   9d 60 4a             sta $4a60,x
8da3   20 48 9f             jsr l9f48
8da6   4c cc 8f             jmp l8fcc
8da9   20 00 4c   l8da9     jsr $4c00
8dac   d7                   ???                ;%11010111
8dad   e8                   inx
8dae   e1 f4                sbc ($f4,x)
8db0   bf                   ???                ;%10111111
8db1   8d 00 4c             sta $4c00
8db4   52                   ???                ;%01010010 'R'
8db5   87                   ???                ;%10000111
8db6   20 06 6c   l8db6     jsr $6c06
8db9   ad 17 d9             lda $d917
8dbc   48                   pha
8dbd   20 03 6c             jsr $6c03
8dc0   68                   pla
8dc1   f0 1b                beq l8dde
8dc3   20 00 4c             jsr $4c00
8dc6   d5 af                cmp $af,x
8dc8   c4 ad                cpy $ad
8dca   00                   brk
8dcb   20 15 4c   l8dcb     jsr $4c15
8dce   c9 c4                cmp #$c4
8dd0   f0 18                beq l8dea
8dd2   c9 af                cmp #$af
8dd4   f0 14                beq l8dea
8dd6   c9 c0                cmp #$c0
8dd8   f0 04                beq l8dde
8dda   c9 d5                cmp #$d5
8ddc   d0 ed                bne l8dcb
8dde   20 00 4c   l8dde     jsr $4c00
8de1   d5 f0                cmp $f0,x
8de3   a1 8d                lda ($8d,x)
8de5   00                   brk
8de6   a9 f5                lda #$f5
8de8   d0 0c                bne l8df6
8dea   20 00 4c   l8dea     jsr $4c00
8ded   c4 ef                cpy $ef
8def   f7                   ???                ;%11110111
8df0   ee a1 8d             inc $8da1
8df3   00                   brk
8df4   a9 e4                lda #$e4
8df6   8d 54 43   l8df6     sta $4354
8df9   4c 10 89             jmp l8910
8dfc   20 83 8f             jsr l8f83
8dff   20 00 4c             jsr $4c00
8e02   cf                   ???                ;%11001111
8e03   f0 e5                beq l8dea
8e05   ee ad 00             inc $00ad
8e08   20 ac 8f             jsr l8fac
8e0b   20 3f 4c             jsr $4c3f
8e0e   f0 3a                beq l8e4a
8e10   20 39 4c             jsr $4c39
8e13   20 1e 4c             jsr $4c1e
8e16   c9 97                cmp #$97
8e18   f0 38                beq l8e52
8e1a   c9 98                cmp #$98
8e1c   f0 34                beq l8e52
8e1e   aa                   tax
8e1f   29 fc                and #$fc
8e21   c9 b8                cmp #$b8
8e23   f0 28                beq l8e4d
8e25   20 9c 8f             jsr l8f9c
8e28   ca                   dex
8e29   d0 09                bne l8e34
8e2b   20 29 a6             jsr la629
8e2e   20 06 a7             jsr la706
8e31   4c cc 8f             jmp l8fcc
8e34   20 00 4c   l8e34     jsr $4c00
8e37   8d ce ef             sta $efce
8e3a   f4                   ???                ;%11110100
8e3b   e8                   inx
8e3c   e9 ee                sbc #$ee
8e3e   e7                   ???                ;%11100111
8e3f   a0 f4                ldy #$f4
8e41   ef                   ???                ;%11101111
8e42   8d ef f0             sta $f0ef
8e45   e5 ee                sbc $ee
8e47   a1 8d                lda ($8d,x)
8e49   00                   brk
8e4a   4c cc 8f   l8e4a     jmp l8fcc
8e4d   8a         l8e4d     txa
8e4e   29 01                and #$01
8e50   f0 10                beq l8e62
8e52   20 00 4c   l8e52     jsr $4c00
8e55   8d cc ef             sta $efcc
8e58   e3                   ???                ;%11100011
8e59   eb                   ???                ;%11101011
8e5a   e5 e4                sbc $e4
8e5c   a1 8d                lda ($8d,x)
8e5e   00                   brk
8e5f   4c cc 8f             jmp l8fcc
8e62   a9 44      l8e62     lda #$44
8e64   99 00 44             sta $4400,y
8e67   d0 e1                bne l8e4a
8e69   20 83 8f             jsr l8f83
8e6c   20 00 4c             jsr $4c00
8e6f   d2                   ???                ;%11010010
8e70   e5 e1                sbc $e1
8e72   e4 f9                cpx $f9
8e74   ae ae ae             ldx $aeae
8e77   8d 00 20             sta $2000
8e7a   ac 8f a9             ldy $a98f
8e7d   52                   ???                ;%01010010 'R'
8e7e   4c da 8b             jmp l8bda
8e81   20 83 8f             jsr l8f83
8e84   20 00 4c             jsr $4c00
8e87   d3                   ???                ;%11010011
8e88   e5 e1                sbc $e1
8e8a   f2                   ???                ;%11110010
8e8b   e3                   ???                ;%11100011
8e8c   e8                   inx
8e8d   ad 00 20             lda $2000
8e90   ac 8f 20             ldy $208f
8e93   3f                   ???                ;%00111111 '?'
8e94   4c f0 2c             jmp $2cf0
8e97   20 9c 8f             jsr l8f9c
8e9a   b9 00 44             lda $4400,y
8e9d   c9 4e                cmp #$4e
8e9f   d0 1c                bne l8ebd
8ea1   a9 bb                lda #$bb
8ea3   99 00 44             sta $4400,y
8ea6   20 00 4c             jsr $4c00
8ea9   8d c1 a0             sta $a0c1
8eac   f3                   ???                ;%11110011
8ead   e5 e3                sbc $e3
8eaf   f2                   ???                ;%11110010
8eb0   e5 f4                sbc $f4
8eb2   a0 e4                ldy #$e4
8eb4   ef                   ???                ;%11101111
8eb5   ef                   ???                ;%11101111
8eb6   f2                   ???                ;%11110010
8eb7   a1 8d                lda ($8d,x)
8eb9   00                   brk
8eba   4c cc 8f             jmp l8fcc
8ebd   20 29 a6   l8ebd     jsr la629
8ec0   20 00 a7             jsr la700
8ec3   4c cc 8f             jmp l8fcc
8ec6   20 83 8f             jsr l8f83
8ec9   20 00 4c             jsr $4c00
8ecc   da                   ???                ;%11011010
8ecd   ad f3 f4             lda $f4f3
8ed0   e1 f4                sbc ($f4,x)
8ed2   f3                   ???                ;%11110011
8ed3   ae ae ae             ldx $aeae
8ed6   8d 00 a9             sta $a900
8ed9   5a                   ???                ;%01011010 'Z'
8eda   20 86 1d             jsr $1d86
8edd   20 00 a7             jsr la700
8ee0   4c 52 87             jmp l8752
8ee3   20 43 6c             jsr $6c43
8ee6   4c 52 87             jmp l8752
8ee9   a5 78                lda $78
8eeb   49 80                eor #$80
8eed   85 78                sta $78
8eef   20 00 4c             jsr $4c00
8ef2   d3                   ???                ;%11010011
8ef3   ef                   ???                ;%11101111
8ef4   f5 ee                sbc $ee,x
8ef6   e4 f3                cpx $f3
8ef8   a0 cf                ldy #$cf
8efa   00                   brk
8efb   24 78                bit $78
8efd   30 0a                bmi l8f09
8eff   20 00 4c             jsr $4c00
8f02   e6 e6                inc $e6
8f04   8d 00 4c             sta $4c00
8f07   52                   ???                ;%01010010 'R'
8f08   87                   ???                ;%10000111
8f09   a9 ee      l8f09     lda #$ee
8f0b   20 03 4c             jsr $4c03
8f0e   20 06 4c             jsr $4c06
8f11   4c 52 87             jmp l8752
8f14   38                   sec
8f15   66 2c                ror $2c
8f17   20 28 8f             jsr l8f28
8f1a   20 00 4c             jsr $4c00
8f1d   ce ef ee             dec $eeef
8f20   e5 a1                sbc $a1
8f22   8d 00 20             sta $2000
8f25   30 4c                bmi l8f73
8f27   60                   rts
8f28   20 00 4c   l8f28     jsr $4c00
8f2b   d3                   ???                ;%11010011
8f2c   e5 f4                sbc $f4
8f2e   a0 e1                ldy #$e1
8f30   e3                   ???                ;%11100011
8f31   f4                   ???                ;%11110100
8f32   e9 f6                sbc #$f6
8f34   e5 a0                sbc $a0
8f36   f0 ec                beq l8f24
8f38   f2                   ???                ;%11110010
8f39   ba                   tsx
8f3a   8d 00 60             sta $6000
8f3d   20 28 8f             jsr l8f28
8f40   ad 67 43             lda $4367
8f43   38                   sec
8f44   e9 b1                sbc #$b1
8f46   8d 67 43             sta $4367
8f49   a2 1f                ldx #$1f
8f4b   ad 67 43   l8f4b     lda $4367
8f4e   dd c0 4a             cmp $4ac0,x
8f51   d0 0a                bne l8f5d
8f53   20 0c 94             jsr l940c
8f56   b0 05                bcs l8f5d
8f58   bd 20 40             lda $4020,x
8f5b   30 13                bmi l8f70
8f5d   ca         l8f5d     dex
8f5e   10 eb                bpl l8f4b
8f60   20 00 4c   l8f60     jsr $4c00
8f63   c9 ee                cmp #$ee
8f65   f6 e1                inc $e1,x
8f67   ec e9 e4             cpx $e4e9
8f6a   a1 8d                lda ($8d,x)
8f6c   00                   brk
8f6d   4c 52 87             jmp l8752
8f70   29 24      l8f70     and #$24
8f72   d0 ec                bne l8f60
8f74   bd c0 4a             lda $4ac0,x
8f77   85 2c                sta $2c
8f79   20 00 97             jsr l9700
8f7c   20 06 4c             jsr $4c06
8f7f   20 30 4c             jsr $4c30
8f82   60                   rts
8f83   a6 7d      l8f83     ldx $7d
8f85   bd 40 4a             lda $4a40,x
8f88   85 2d                sta $2d
8f8a   bd 60 4a             lda $4a60,x
8f8d   85 2e                sta $2e
8f8f   a0 ff                ldy #$ff
8f91   bd 20 40             lda $4020,x
8f94   10 03                bpl l8f99
8f96   bc c0 4a             ldy $4ac0,x
8f99   84 88      l8f99     sty $88
8f9b   60                   rts
8f9c   20 39 4c   l8f9c     jsr $4c39
8f9f   a4 aa                ldy $aa
8fa1   a5 a9                lda $a9
8fa3   18                   clc
8fa4   79 42 47             adc $4742,y
8fa7   a8                   tay
8fa8   be 00 49             ldx $4900,y
8fab   60         l8fab     rts
8fac   a6 7d      l8fac     ldx $7d
8fae   bd 20 40             lda $4020,x
8fb1   30 f8                bmi l8fab
8fb3   20 00 4c             jsr $4c00
8fb6   c3                   ???                ;%11000011
8fb7   e1 ee                sbc ($ee,x)
8fb9   a7                   ???                ;%10100111
8fba   f4                   ???                ;%11110100
8fbb   a1 8d                lda ($8d,x)
8fbd   00                   brk
8fbe   68                   pla
8fbf   68                   pla
8fc0   4c cc 8f             jmp l8fcc
8fc3   20 00 4c             jsr $4c00
8fc6   d0 e1                bne l8fa9
8fc8   f3                   ???                ;%11110011
8fc9   f3                   ???                ;%11110011
8fca   8d 00 20             sta $2000
8fcd   d5 8f                cmp $8f,x
8fcf   20 1b 4c             jsr $4c1b
8fd2   4c 2e a6             jmp la62e
8fd5   20 f7 a3   l8fd5     jsr la3f7
8fd8   20 b0 9f             jsr l9fb0
8fdb   4c 8c a4             jmp la48c
8fde   a9 00      l8fde     lda #$00
8fe0   85 7f                sta $7f
8fe2   a5 20                lda $20
8fe4   c9 d4                cmp #$d4
8fe6   f0 1d                beq l9005
8fe8   c9 d1                cmp #$d1
8fea   d0 06                bne l8ff2
8fec   20 27 4c             jsr $4c27
8fef   aa                   tax
8ff0   30 13                bmi l9005
8ff2   a6 7d      l8ff2     ldx $7d
8ff4   bd 20 40             lda $4020,x
8ff7   29 04                and #$04
8ff9   d0 0a                bne l9005
8ffb   bd 20 40             lda $4020,x
8ffe   29 08                and #$08
9000   f0 04                beq l9006
9002   20 9e a2             jsr la29e
9005   60         l9005     rts
9006   bd 00 4a   l9006     lda $4a00,x
9009   c9 f4                cmp #$f4
900b   d0 05                bne l9012
900d   a9 00                lda #$00
900f   9d 00 42             sta $4200,x
9012   bd 20 40   l9012     lda $4020,x
9015   29 02                and #$02
9017   f0 19                beq l9032
9019   20 27 4c             jsr $4c27
901c   29 03                and #$03
901e   d0 08                bne l9028
9020   bd 20 40             lda $4020,x
9023   30 17                bmi l903c
9025   fe c0 4a             inc $4ac0,x
9028   a5 7d      l9028     lda $7d
902a   85 7e                sta $7e
902c   20 5f a0             jsr la05f
902f   4c 3c 90             jmp l903c
9032   20 e0 a0   l9032     jsr la0e0
9035   b0 41                bcs l9078
9037   20 8a 90             jsr l908a
903a   b0 3c                bcs l9078
903c   20 de 9c   l903c     jsr l9cde
903f   90 0c                bcc l904d
9041   a6 7d                ldx $7d
9043   bd 20 40             lda $4020,x
9046   29 02                and #$02
9048   f0 2e                beq l9078
904a   4c 8a 90             jmp l908a
904d   2c 53 43   l904d     bit $4353
9050   10 23                bpl l9075
9052   20 9b 93             jsr l939b
9055   a9 13                lda #$13
9057   20 4b 4c             jsr $4c4b
905a   a6 7d                ldx $7d
905c   bd 00 4a             lda $4a00,x
905f   48                   pha
9060   20 00 97             jsr l9700
9063   a9 12                lda #$12
9065   20 ba 93             jsr l93ba
9068   a4 7d                ldy $7d
906a   20 be 96             jsr l96be
906d   68                   pla
906e   c9 fc                cmp #$fc
9070   d0 03                bne l9075
9072   20 04 a5             jsr la504
9075   20 1b 4c   l9075     jsr $4c1b
9078   60         l9078     rts
9079   20 fd 94   l9079     jsr l94fd
907c   ca                   dex
907d   f0 02                beq l9081
907f   18                   clc
9080   60                   rts
9081   a9 21      l9081     lda #$21
9083   85 7f                sta $7f
9085   20 f2 8a             jsr l8af2
9088   38                   sec
9089   60                   rts
908a   4e c9 91   l908a     lsr $91c9
908d   a6 7d                ldx $7d
908f   20 d3 9b             jsr l9bd3
9092   a6 7e                ldx $7e
9094   30 4d                bmi l90e3
9096   a4 7d                ldy $7d
9098   b9 20 40             lda $4020,y
909b   30 dc                bmi l9079
909d   bd 20 40             lda $4020,x
90a0   10 22                bpl l90c4
90a2   20 d5 9f             jsr l9fd5
90a5   a8                   tay
90a6   a2 05                ldx #$05
90a8   b9 90 11   l90a8     lda $1190,y
90ab   c9 2e                cmp #$2e
90ad   d0 12                bne l90c1
90af   a6 7d                ldx $7d
90b1   20 d7 98             jsr l98d7
90b4   29 80                and #$80
90b6   f0 0c                beq l90c4
90b8   20 27 4c             jsr $4c27
90bb   8d c9 91             sta $91c9
90be   4c c4 90             jmp l90c4
90c1   ca         l90c1     dex
90c2   10 e4                bpl l90a8
90c4   a4 7d      l90c4     ldy $7d
90c6   a6 7e                ldx $7e
90c8   20 fd 94             jsr l94fd
90cb   a4 7d                ldy $7d
90cd   b9 00 4a             lda $4a00,y
90d0   20 ea 96             jsr l96ea
90d3   a8                   tay
90d4   b9 00 45             lda $4500,y
90d7   29 0f                and #$0f
90d9   8d de 90             sta $90de
90dc   8a                   txa
90dd   c9 00                cmp #$00
90df   f0 04                beq l90e5
90e1   90 02                bcc l90e5
90e3   18         l90e3     clc
90e4   60                   rts
90e5   8c f7 90   l90e5     sty $90f7
90e8   a4 7d                ldy $7d
90ea   b9 00 4a             lda $4a00,y
90ed   c9 a8                cmp #$a8
90ef   d0 05                bne l90f6
90f1   a9 20                lda #$20
90f3   99 00 42             sta $4200,y
90f6   a0 00      l90f6     ldy #$00
90f8   e0 02                cpx #$02
90fa   90 03                bcc l90ff
90fc   4c 84 91             jmp l9184
90ff   a6 7d      l90ff     ldx $7d
9101   bd 00 4a             lda $4a00,x
9104   c9 f4                cmp #$f4
9106   d0 05                bne l910d
9108   a9 20                lda #$20
910a   9d 00 42             sta $4200,x
910d   a9 0c      l910d     lda #$0c
910f   20 4b 4c             jsr $4c4b
9112   a6 7e                ldx $7e
9114   a5 7d                lda $7d
9116   9d 40 41             sta $4140,x
9119   20 40 95             jsr l9540
911c   b0 02                bcs l9120
911e   38                   sec
911f   60                   rts
9120   a6 7d      l9120     ldx $7d
9122   20 c6 98             jsr l98c6
9125   29 02                and #$02
9127   f0 4a                beq l9173
9129   20 27 4c             jsr $4c27
912c   29 03                and #$03
912e   d0 43                bne l9173
9130   20 9b 93             jsr l939b
9133   20 00 4c             jsr $4c00
9136   c1 a0                cmp ($a0,x)
9138   00                   brk
9139   20 00 97             jsr l9700
913c   ad 80 11             lda $1180
913f   0d 81 11             ora $1181
9142   d0 07                bne l914b
9144   a9 0b                lda #$0b
9146   20 ba 93             jsr l93ba
9149   38                   sec
914a   60                   rts
914b   a9 0a      l914b     lda #$0a
914d   20 ba 93             jsr l93ba
9150   f8                   sed
9151   ad 81 11             lda $1181
9154   38                   sec
9155   e9 05                sbc #$05
9157   aa                   tax
9158   ad 80 11             lda $1180
915b   e9 00                sbc #$00
915d   d8                   cld
915e   b0 03                bcs l9163
9160   a9 00                lda #$00
9162   aa                   tax
9163   8d 80 11   l9163     sta $1180
9166   8e 81 11             stx $1181
9169   a9 0f                lda #$0f
916b   20 4b 4c             jsr $4c4b
916e   20 30 4c             jsr $4c30
9171   38                   sec
9172   60                   rts
9173   a6 7e      l9173     ldx $7e
9175   38                   sec
9176   20 18 6c             jsr $6c18
9179   20 9b 93             jsr l939b
917c   20 56 99             jsr l9956
917f   20 e1 9f             jsr l9fe1
9182   38                   sec
9183   60                   rts
9184   a6 7d      l9184     ldx $7d
9186   bd 00 4a             lda $4a00,x
9189   c9 a8                cmp #$a8
918b   f0 08                beq l9195
918d   20 27 4c             jsr $4c27
9190   4a                   lsr a
9191   90 02                bcc l9195
9193   18                   clc
9194   60                   rts
9195   a6 7d      l9195     ldx $7d
9197   20 d7 98             jsr l98d7
919a   29 80                and #$80
919c   f0 0c                beq l91aa
919e   a5 20                lda $20
91a0   c9 89                cmp #$89
91a2   f0 04                beq l91a8
91a4   c9 ce                cmp #$ce
91a6   d0 02                bne l91aa
91a8   18         l91a8     clc
91a9   60                   rts
91aa   b9 00 45   l91aa     lda $4500,y
91ad   4a                   lsr a
91ae   4a                   lsr a
91af   4a                   lsr a
91b0   4a                   lsr a
91b1   8d 44 43             sta $4344
91b4   a9 0c                lda #$0c
91b6   20 4b 4c             jsr $4c4b
91b9   a6 7e                ldx $7e
91bb   bd 40 4a             lda $4a40,x
91be   85 8c                sta $8c
91c0   bd 60 4a             lda $4a60,x
91c3   85 8d                sta $8d
91c5   20 40 95             jsr l9540
91c8   a9 00                lda #$00
91ca   10 01                bpl l91cd
91cc   18                   clc
91cd   20 ba 9e   l91cd     jsr l9eba
91d0   a6 7e                ldx $7e
91d2   30 0d                bmi l91e1
91d4   38                   sec
91d5   20 18 6c             jsr $6c18
91d8   20 9b 93             jsr l939b
91db   20 56 99             jsr l9956
91de   20 e1 9f             jsr l9fe1
91e1   38         l91e1     sec
91e2   60                   rts
91e3   20 06 4c   l91e3     jsr $4c06
91e6   a9 06                lda #$06
91e8   20 09 6c             jsr $6c09
91eb   a2 02                ldx #$02
91ed   20 24 6c             jsr $6c24
91f0   45 4e                eor $4e
91f2   44                   ???                ;%01000100 'D'
91f3   00                   brk
91f4   a2 00      l91f4     ldx #$00
91f6   20 40 6c             jsr $6c40          ; play no song
91f9   a9 00                lda #$00
91fb   85 2d                sta $2d
91fd   a9 00                lda #$00
91ff   85 2e                sta $2e
9201   ad 55 43             lda $4355
9204   c9 cd                cmp #$cd
9206   f0 db                beq l91e3
9208   ae 58 43             ldx $4358
920b   10 02                bpl l920f
920d   29 df                and #$df
920f   09 80      l920f     ora #$80
9211   85 88                sta $88
9213   a0 00                ldy #$00
9215   b9 00 ba   l9215     lda $ba00,y
9218   99 00 4a             sta $4a00,y
921b   88                   dey
921c   d0 f7                bne l9215
921e   ad 58 43             lda $4358
9221   30 32                bmi l9255
9223   29 02                and #$02
9225   d0 2e                bne l9255
9227   ac 57 43             ldy $4357
922a   84 89                sty $89
922c   30 27                bmi l9255
922e   b9 00 4a             lda $4a00,y
9231   29 fc                and #$fc
9233   c9 2c                cmp #$2c
9235   d0 1b                bne l9252
9237   24 75                bit $75
9239   10 17                bpl l9252
923b   a9 99                lda #$99
923d   99 c0 4a             sta $4ac0,y
9240   a9 02                lda #$02
9242   99 e0 4a             sta $4ae0,y
9245   b9 00 4a             lda $4a00,y
9248   e9 08                sbc #$08
924a   99 00 4a             sta $4a00,y
924d   99 20 4a             sta $4a20,y
9250   d0 03                bne l9255
9252   20 be 96   l9252     jsr l96be
9255   20 9b 93   l9255     jsr l939b
9258   ad 5c 43             lda $435c
925b   0a                   asl a
925c   0a                   asl a
925d   0a                   asl a
925e   0a                   asl a
925f   a8                   tay
9260   b9 83 10             lda $1083,y
9263   a2 ff                ldx #$ff
9265   c9 c4                cmp #$c4
9267   f0 07                beq l9270
9269   c9 d3                cmp #$d3
926b   f0 03                beq l9270
926d   ae 5c 43             ldx $435c
9270   86 2c      l9270     stx $2c
9272   ae 5b 43             ldx $435b
9275   86 0a                stx $0a
9277   f0 17                beq l9290
9279   e0 21                cpx #$21
927b   90 26                bcc l92a3
927d   20 e6 47   l927d     jsr $47e6
9280   a2 01                ldx #$01
9282   20 24 6c             jsr $6c24
9285   4d 41 49             eor $4941
9288   4e 2e 44             lsr $442e
928b   4e 47 00             lsr $0047
928e   b0 ed                bcs l927d
9290   20 e6 47   l9290     jsr $47e6
9293   a2 01                ldx #$01
9295   20 24 6c             jsr $6c24
9298   4d 41 49             eor $4941
929b   4e 2e 4f             lsr $4f2e
929e   55 54                eor $54,x
92a0   00                   brk
92a1   b0 ed                bcs l9290
92a3   ca         l92a3     dex
92a4   8a                   txa
92a5   4a                   lsr a
92a6   4a                   lsr a
92a7   4a                   lsr a
92a8   18                   clc
92a9   69 03                adc #$03
92ab   20 09 6c             jsr $6c09
92ae   20 e6 47             jsr $47e6
92b1   a2 01                ldx #$01
92b3   20 24 6c             jsr $6c24
92b6   4d 41 49             eor $4941
92b9   4e 2e 54             lsr $542e
92bc   57                   ???                ;%01010111 'W'
92bd   4e 00 b0             lsr $b000
92c0   ed a2 00             sbc $00a2
92c3   86 8a                stx $8a
92c5   48                   pha
92c6   aa                   tax
92c7   bc 60 4a             ldy $4a60,x
92ca   bd 40 4a             lda $4a40,x
92cd   aa                   tax
92ce   68                   pla
92cf   c8                   iny
92d0   20 eb 92             jsr l92eb
92d3   66 8a                ror $8a
92d5   88                   dey
92d6   e8                   inx
92d7   20 eb 92             jsr l92eb
92da   66 8a                ror $8a
92dc   ca                   dex
92dd   ca                   dex
92de   20 eb 92             jsr l92eb
92e1   66 8a                ror $8a
92e3   e8                   inx
92e4   88                   dey
92e5   20 eb 92             jsr l92eb
92e8   66 8a                ror $8a
92ea   60                   rts
92eb   20 11 93   l92eb     jsr l9311
92ee   b0 01                bcs l92f1
92f0   60                   rts
92f1   e0 0b      l92f1     cpx #$0b
92f3   b0 06                bcs l92fb
92f5   c0 0b                cpy #$0b
92f7   b0 02                bcs l92fb
92f9   38                   sec
92fa   60                   rts
92fb   18         l92fb     clc
92fc   8e 0e 93             stx $930e
92ff   aa                   tax
9300   48                   pha
9301   bd 20 40             lda $4020,x
9304   29 02                and #$02
9306   f0 05                beq l930d
9308   38                   sec
9309   6e 53 43             ror $4353
930c   38                   sec
930d   a2 00      l930d     ldx #$00
930f   68                   pla
9310   60                   rts
9311   48         l9311     pha
9312   8e 1a 93             stx $931a
9315   aa                   tax
9316   bd 00 4a             lda $4a00,x
9319   a2 00                ldx #$00
931b   20 20 93             jsr l9320
931e   68                   pla
931f   60                   rts
9320   8e 4b 93   l9320     stx $934b
9323   8c 4d 93             sty $934d
9326   e0 0b                cpx #$0b
9328   b0 26                bcs l9350
932a   c0 0b                cpy #$0b
932c   b0 22                bcs l9350
932e   8d 4f 93             sta $934f
9331   8a                   txa
9332   18                   clc
9333   79 42 47             adc $4742,y
9336   a8                   tay
9337   be 00 44             ldx $4400,y
933a   e0 ff                cpx #$ff
933c   18                   clc
933d   f0 0b                beq l934a
933f   ad 4f 93             lda $934f
9342   20 78 4c             jsr $4c78
9345   90 03                bcc l934a
9347   20 51 93             jsr l9351
934a   a2 00      l934a     ldx #$00
934c   a0 00                ldy #$00
934e   a9 00                lda #$00
9350   60         l9350     rts
9351   a2 1f      l9351     ldx #$1f
9353   bd 40 4a   l9353     lda $4a40,x
9356   cd 4b 93             cmp $934b
9359   d0 2d                bne l9388
935b   bd 60 4a             lda $4a60,x
935e   cd 4d 93             cmp $934d
9361   d0 25                bne l9388
9363   bd 20 40             lda $4020,x
9366   29 04                and #$04
9368   d0 1e                bne l9388
936a   bd 20 40             lda $4020,x
936d   29 08                and #$08
936f   d0 15                bne l9386
9371   bd 00 4a             lda $4a00,x
9374   f0 12                beq l9388
9376   c9 eb                cmp #$eb
9378   f0 0c                beq l9386
937a   29 fe                and #$fe
937c   c9 1e                cmp #$1e
937e   f0 08                beq l9388
9380   29 fc                and #$fc
9382   c9 e8                cmp #$e8
9384   f0 02                beq l9388
9386   18         l9386     clc
9387   60                   rts
9388   ca         l9388     dex
9389   10 c8                bpl l9353
938b   38                   sec
938c   60                   rts
938d   a2 00      l938d     ldx #$00
938f   18                   clc
9390   bc 00 4a   l9390     ldy $4a00,x
9393   f0 05                beq l939a
9395   e8                   inx
9396   e0 20                cpx #$20
9398   90 f6                bcc l9390
939a   60         l939a     rts
939b   a9 8d      l939b     lda #$8d
939d   2c a9 a0             bit $a0a9
93a0   08         l93a0     php
93a1   c9 a0                cmp #$a0
93a3   d0 0c                bne l93b1
93a5   a5 c9                lda $c9
93a7   c9 18                cmp #$18
93a9   f0 0b                beq l93b6
93ab   c9 28                cmp #$28
93ad   b0 07                bcs l93b6
93af   a9 a0                lda #$a0
93b1   20 03 4c   l93b1     jsr $4c03
93b4   28                   plp
93b5   60                   rts
93b6   a9 a0      l93b6     lda #$a0
93b8   28                   plp
93b9   60                   rts
93ba   a2 51      l93ba     ldx #$51
93bc   a0 80                ldy #$80
93be   86 88      l93be     stx $88
93c0   84 89                sty $89
93c2   a0 00                ldy #$00
93c4   aa                   tax
93c5   f0 0e                beq l93d5
93c7   b1 88      l93c7     lda ($88),y
93c9   e6 88                inc $88
93cb   d0 02                bne l93cf
93cd   e6 89                inc $89
93cf   0a         l93cf     asl a
93d0   b0 f5                bcs l93c7
93d2   ca                   dex
93d3   d0 f2                bne l93c7
93d5   88         l93d5     dey
93d6   20 ee 93             jsr l93ee
93d9   c8                   iny
93da   b1 88      l93da     lda ($88),y
93dc   48                   pha
93dd   09 80                ora #$80
93df   20 a0 93             jsr l93a0
93e2   c9 a0                cmp #$a0
93e4   d0 03                bne l93e9
93e6   20 ee 93             jsr l93ee
93e9   c8         l93e9     iny
93ea   68                   pla
93eb   30 ed                bmi l93da
93ed   60                   rts
93ee   8c 04 94   l93ee     sty $9404
93f1   a6 c9                ldx $c9
93f3   c8         l93f3     iny
93f4   b1 88                lda ($88),y
93f6   ec 40 43             cpx $4340
93f9   b0 0b                bcs l9406
93fb   e8                   inx
93fc   0a                   asl a
93fd   90 04                bcc l9403
93ff   c9 40                cmp #$40
9401   d0 f0                bne l93f3
9403   a0 00      l9403     ldy #$00
9405   60                   rts
9406   20 9b 93   l9406     jsr l939b
9409   4c 03 94             jmp l9403
940c   18         l940c     clc
940d   bd 20 40             lda $4020,x
9410   f0 24                beq l9436
9412   29 20                and #$20
9414   d0 20                bne l9436
9416   bd 20 40             lda $4020,x
9419   10 18                bpl l9433
941b   bd c0 4a             lda $4ac0,x
941e   f0 0f                beq l942f
9420   0a                   asl a
9421   0a                   asl a
9422   0a                   asl a
9423   69 04                adc #$04
9425   8d 29 94             sta $9429
9428   ad 00 10             lda $1000
942b   c9 6a                cmp #$6a
942d   f0 07                beq l9436
942f   bd 20 40   l942f     lda $4020,x
9432   2c 49 01             bit $0149
9435   6a                   ror a
9436   60         l9436     rts
9437   a5 9b      l9437     lda $9b
9439   49 80                eor #$80
943b   85 9b                sta $9b
943d   30 31                bmi l9470
943f   a6 7d                ldx $7d
9441   30 21                bmi l9464
9443   20 0c 94             jsr l940c
9446   b0 1c                bcs l9464
9448   bd 20 40             lda $4020,x
944b   f0 17                beq l9464
944d   29 20                and #$20
944f   d0 13                bne l9464
9451   bd 20 40             lda $4020,x
9454   29 04                and #$04
9456   d0 0c                bne l9464
9458   bd 40 4a             lda $4a40,x
945b   bc 60 4a             ldy $4a60,x
945e   aa                   tax
945f   a9 01                lda #$01
9461   20 71 94             jsr l9471
9464   24 73      l9464     bit $73
9466   10 08                bpl l9470
9468   a9 00                lda #$00
946a   a6 9c                ldx $9c
946c   a4 9e                ldy $9e
946e   10 01                bpl l9471
9470   60         l9470     rts
9471   c9 00      l9471     cmp #$00
9473   f0 29                beq l949e
9475   98                   tya
9476   0a                   asl a
9477   69 01                adc #$01
9479   a8                   tay
947a   b9 d0 03             lda $03d0,y
947d   85 fe                sta $fe
947f   b9 e8 03             lda $03e8,y
9482   85 ff                sta $ff
9484   8a                   txa
9485   0a                   asl a
9486   69 01                adc #$01
9488   a8                   tay
9489   20 91 94             jsr l9491
948c   98                   tya
948d   18                   clc
948e   69 27                adc #$27
9490   a8                   tay
9491   20 95 94   l9491     jsr l9495
9494   c8                   iny
9495   b1 fe      l9495     lda ($fe),y
9497   29 f0                and #$f0
9499   09 08                ora #$08
949b   91 fe                sta ($fe),y
949d   60                   rts
949e   a9 00      l949e     lda #$00
94a0   8d 10 d0             sta $d010
94a3   8d 17 d0             sta $d017
94a6   8d 1b d0             sta $d01b
94a9   8d 1c d0             sta $d01c
94ac   8d 1d d0             sta $d01d
94af   a9 07                lda #$07
94b1   8d 28 d0             sta $d028
94b4   a9 83                lda #$83
94b6   8d f9 07             sta $07f9
94b9   8a                   txa
94ba   0a                   asl a
94bb   0a                   asl a
94bc   0a                   asl a
94bd   0a                   asl a
94be   18                   clc
94bf   69 20                adc #$20
94c1   8d 02 d0             sta $d002
94c4   98                   tya
94c5   0a                   asl a
94c6   0a                   asl a
94c7   0a                   asl a
94c8   0a                   asl a
94c9   18                   clc
94ca   69 42                adc #$42
94cc   8d 03 d0             sta $d003
94cf   a9 00                lda #$00
94d1   a2 3f                ldx #$3f
94d3   9d c0 20   l94d3     sta $20c0,x
94d6   ca                   dex
94d7   d0 fa                bne l94d3
94d9   a9 10                lda #$10
94db   85 fe                sta $fe
94dd   a0 00                ldy #$00
94df   b9 80 42   l94df     lda $4280,y
94e2   9d c0 20             sta $20c0,x
94e5   e8                   inx
94e6   c8                   iny
94e7   b9 80 42             lda $4280,y
94ea   9d c0 20             sta $20c0,x
94ed   e8                   inx
94ee   e8                   inx
94ef   c8                   iny
94f0   c6 fe                dec $fe
94f2   d0 eb                bne l94df
94f4   ad 15 d0             lda $d015
94f7   09 02                ora #$02
94f9   8d 15 d0             sta $d015
94fc   60                   rts
94fd   bd 40 4a   l94fd     lda $4a40,x
9500   38                   sec
9501   f9 40 4a             sbc $4a40,y
9504   b0 04                bcs l950a
9506   49 ff                eor #$ff
9508   69 01                adc #$01
950a   85 a9      l950a     sta $a9
950c   bd 60 4a             lda $4a60,x
950f   38                   sec
9510   f9 60 4a             sbc $4a60,y
9513   b0 04                bcs l9519
9515   49 ff                eor #$ff
9517   69 01                adc #$01
9519   85 aa      l9519     sta $aa
951b   a6 a9      l951b     ldx $a9
951d   a9 00                lda #$00
951f   18                   clc
9520   65 a9      l9520     adc $a9
9522   ca                   dex
9523   d0 fb                bne l9520
9525   a6 aa                ldx $aa
9527   65 aa      l9527     adc $aa
9529   ca                   dex
952a   d0 fb                bne l9527
952c   8d 3e 95             sta $953e
952f   38                   sec
9530   a2 ff                ldx #$ff
9532   86 88                stx $88
9534   e6 88      l9534     inc $88
9536   e6 88                inc $88
9538   e8                   inx
9539   e5 88                sbc $88
953b   b0 f7                bcs l9534
953d   a9 00                lda #$00
953f   60                   rts
9540   a6 7d      l9540     ldx $7d
9542   bd 20 40             lda $4020,x
9545   10 13                bpl l955a
9547   2c 52 43             bit $4352
954a   30 25                bmi l9571
954c   a5 7f                lda $7f
954e   c9 27                cmp #$27
9550   f0 1e                beq l9570
9552   c9 23                cmp #$23
9554   f0 1a                beq l9570
9556   c9 28                cmp #$28
9558   f0 16                beq l9570
955a   20 38 98   l955a     jsr l9838
955d   48                   pha
955e   a6 7e                ldx $7e
9560   20 a9 97             jsr l97a9
9563   a8                   tay
9564   68                   pla
9565   aa                   tax
9566   20 75 4c             jsr $4c75
9569   85 88                sta $88
956b   20 72 4c             jsr $4c72
956e   c5 88                cmp $88
9570   60         l9570     rts
9571   a5 7f      l9571     lda $7f
9573   c9 30                cmp #$30
9575   f0 20                beq l9597
9577   c9 31                cmp #$31
9579   f0 1c                beq l9597
957b   c9 33                cmp #$33
957d   b0 18                bcs l9597
957f   a6 7d      l957f     ldx $7d
9581   20 d7 97             jsr l97d7
9584   48                   pha
9585   a6 7e                ldx $7e
9587   20 d7 97             jsr l97d7
958a   a8                   tay
958b   68                   pla
958c   aa                   tax
958d   20 75 4c             jsr $4c75
9590   85 88                sta $88
9592   20 72 4c             jsr $4c72
9595   c5 88                cmp $88
9597   66 9f      l9597     ror $9f
9599   38                   sec
959a   60                   rts
959b   bd 00 4a   l959b     lda $4a00,x
959e   20 ea 96   l959e     jsr l96ea
95a1   85 fc                sta $fc
95a3   a9 00                lda #$00
95a5   06 fc                asl $fc
95a7   2a                   rol a
95a8   06 fc                asl $fc
95aa   2a                   rol a
95ab   06 fc                asl $fc
95ad   2a                   rol a
95ae   48                   pha
95af   a5 fc                lda $fc
95b1   69 00                adc #$00
95b3   85 fc                sta $fc
95b5   68                   pla
95b6   69 bb                adc #$bb
95b8   85 fd                sta $fd
95ba   b1 fc                lda ($fc),y
95bc   4c 57 4c             jmp $4c57
95bf   85 8b      l95bf     sta $8b
95c1   8e 2c 96             stx $962c
95c4   8c 2e 96             sty $962e
95c7   0a                   asl a
95c8   0a                   asl a
95c9   0a                   asl a
95ca   0a                   asl a
95cb   aa                   tax
95cc   bd 85 10             lda $1085,x
95cf   20 57 4c             jsr $4c57
95d2   85 8a                sta $8a
95d4   a0 ff                ldy #$ff
95d6   c8         l95d6     iny
95d7   b9 66 47             lda $4766,y
95da   dd 82 10             cmp $1082,x
95dd   d0 f7                bne l95d6
95df   b9 6f 47             lda $476f,y
95e2   18                   clc
95e3   90 46                bcc l962b
95e5   8e 2c 96   l95e5     stx $962c
95e8   8c 2e 96             sty $962e
95eb   a0 00                ldy #$00
95ed   84 88                sty $88
95ef   be 00 4a   l95ef     ldx $4a00,y
95f2   f0 02                beq l95f6
95f4   e6 88                inc $88
95f6   c8         l95f6     iny
95f7   c0 20                cpy #$20
95f9   90 f4                bcc l95ef
95fb   a4 88                ldy $88
95fd   c0 1a                cpy #$1a
95ff   90 01                bcc l9602
9601   60                   rts
9602   ae 2c 96   l9602     ldx $962c
9605   ac 2e 96             ldy $962e
9608   aa                   tax
9609   a0 01                ldy #$01
960b   20 9e 95             jsr l959e
960e   85 8a                sta $8a
9610   20 27 4c             jsr $4c27
9613   29 07                and #$07
9615   38                   sec
9616   e9 04                sbc #$04
9618   18                   clc
9619   65 8a                adc $8a
961b   c9 1f                cmp #$1f
961d   b0 02                bcs l9621
961f   85 8a                sta $8a
9621   8a         l9621     txa
9622   a0 05                ldy #$05
9624   20 9e 95             jsr l959e
9627   85 8b                sta $8b
9629   8a                   txa
962a   38                   sec
962b   a2 00      l962b     ldx #$00
962d   a0 00                ldy #$00
962f   08         l962f     php
9630   8e 61 96             stx $9661
9633   8c 66 96             sty $9666
9636   20 8d 93             jsr l938d
9639   90 03                bcc l963e
963b   28                   plp
963c   38                   sec
963d   60                   rts
963e   85 88      l963e     sta $88
9640   9d 00 4a             sta $4a00,x
9643   9d 20 4a             sta $4a20,x
9646   a9 00                lda #$00
9648   9d 00 42             sta $4200,x
964b   8a                   txa
964c   48                   pha
964d   a2 1f                ldx #$1f
964f   dd a0 41   l964f     cmp $41a0,x
9652   d0 03                bne l9657
9654   7e a0 41             ror $41a0,x
9657   ca         l9657     dex
9658   10 f5                bpl l964f
965a   68                   pla
965b   aa                   tax
965c   38                   sec
965d   7e 40 41             ror $4140,x
9660   a9 00                lda #$00
9662   9d 40 4a             sta $4a40,x
9665   a9 00                lda #$00
9667   9d 60 4a             sta $4a60,x
966a   a5 88                lda $88
966c   29 fe                and #$fe
966e   c9 1c                cmp #$1c
9670   f0 16                beq l9688
9672   29 f8                and #$f8
9674   c9 60                cmp #$60
9676   f0 08                beq l9680
9678   c9 e8                cmp #$e8
967a   f0 04                beq l9680
967c   c9 40                cmp #$40
967e   b0 08                bcs l9688
9680   28         l9680     plp
9681   a9 20                lda #$20
9683   9d 20 40             sta $4020,x
9686   18                   clc
9687   60                   rts
9688   a5 8a      l9688     lda $8a
968a   9d 40 40             sta $4040,x
968d   49 ff                eor #$ff
968f   69 24                adc #$24
9691   9d 00 40             sta $4000,x
9694   a5 8b                lda $8b
9696   9d c0 4a             sta $4ac0,x
9699   28                   plp
969a   a9 80                lda #$80
969c   90 01                bcc l969f
969e   4a                   lsr a
969f   9d 20 40   l969f     sta $4020,x
96a2   a5 7d                lda $7d
96a4   48                   pha
96a5   86 7d                stx $7d
96a7   20 f7 a3             jsr la3f7
96aa   a6 7d                ldx $7d
96ac   68                   pla
96ad   85 7d                sta $7d
96af   18                   clc
96b0   60                   rts
96b1   bc c0 4a   l96b1     ldy $4ac0,x
96b4   98         l96b4     tya
96b5   0a                   asl a
96b6   0a                   asl a
96b7   0a                   asl a
96b8   0a                   asl a
96b9   aa                   tax
96ba   bd 80 10             lda $1080,x
96bd   60                   rts
96be   a9 00      l96be     lda #$00
96c0   99 00 4a             sta $4a00,y
96c3   99 20 4a             sta $4a20,y
96c6   99 20 40             sta $4020,y
96c9   99 c0 4a             sta $4ac0,y
96cc   99 00 42             sta $4200,y
96cf   99 40 4a             sta $4a40,y
96d2   99 60 4a             sta $4a60,y
96d5   99 00 40             sta $4000,y
96d8   99 40 40             sta $4040,y
96db   a9 ff                lda #$ff
96dd   99 80 40             sta $4080,y
96e0   99 a0 40             sta $40a0,y
96e3   99 40 41             sta $4140,y
96e6   99 a0 41             sta $41a0,y
96e9   60                   rts
96ea   38         l96ea     sec
96eb   e9 40                sbc #$40
96ed   4a                   lsr a
96ee   4a                   lsr a
96ef   60                   rts
96f0   ad 46 43   l96f0     lda $4346
96f3   10 05                bpl l96fa
96f5   ad 47 43             lda $4347
96f8   10 21                bpl l971b
96fa   ad 45 43   l96fa     lda $4345
96fd   4c 0b 97             jmp l970b
9700   8e 16 97   l9700     stx $9716
9703   bd 20 40             lda $4020,x
9706   30 10                bmi l9718
9708   bd 00 4a             lda $4a00,x
970b   20 ea 96   l970b     jsr l96ea
970e   a2 80                ldx #$80
9710   a0 bc                ldy #$bc
9712   20 be 93             jsr l93be
9715   a2 00      l9715     ldx #$00
9717   60                   rts
9718   bd c0 4a   l9718     lda $4ac0,x
971b   0a         l971b     asl a
971c   0a                   asl a
971d   0a                   asl a
971e   aa                   tax
971f   bd 00 10   l971f     lda $1000,x
9722   48                   pha
9723   09 80                ora #$80
9725   20 a0 93             jsr l93a0
9728   e8                   inx
9729   68                   pla
972a   30 f3                bmi l971f
972c   10 e7                bpl l9715
972e   c0 af                cpy #$af
9730   bb                   ???                ;%10111011
9731   ba                   tsx
9732   00                   brk
9733   ee f3 e5             inc $e5f3
9736   f7                   ???                ;%11110111
9737   a0 ff      l9737     ldy #$ff
9739   c8         l9739     iny
973a   be 2e 97             ldx $972e,y
973d   f0 08                beq l9747
973f   d9 2e 97             cmp $972e,y
9742   d0 f5                bne l9739
9744   b9 33 97             lda $9733,y
9747   60         l9747     rts
9748   a2 00      l9748     ldx #$00
974a   86 a7                stx $a7
974c   86 a8                stx $a8
974e   c9 ee                cmp #$ee
9750   f0 0e                beq l9760
9752   c9 f3                cmp #$f3
9754   f0 18                beq l976e
9756   c9 e5                cmp #$e5
9758   f0 22                beq l977c
975a   c9 f7                cmp #$f7
975c   f0 2b                beq l9789
975e   18                   clc
975f   60                   rts
9760   20 00 4c   l9760     jsr $4c00
9763   ce ef f2             dec $f2ef
9766   f4                   ???                ;%11110100
9767   e8                   inx
9768   8d 00 c6             sta $c600
976b   a8                   tay
976c   38                   sec
976d   60                   rts
976e   20 00 4c   l976e     jsr $4c00
9771   d3                       
9772   ef                       
9773   f5 f4                
9775   e8                   
9776   8d 00 e6             sta $e600
9779   a8                   tay
977a   38                   sec
977b   60                   rts
977c   20 00 4c   l977c     jsr $4c00
977f   c5 e1                
9781   f3                   
9782   f4                   
9783   8d 00 e6             sta $e600
9786   a7                   ???                ;%10100111
9787   38                   sec
9788   60                   rts
9789   20 00 4c   l9789     jsr $4c00
978c   d7                   
978d   e5 f3                
978f   f4                   
9790   8d 00 c6             sta $c600
9793   a7                   ???                ;%10100111
9794   38                   sec
9795   60                   rts
9796   bd 20 40   l9796     lda $4020,x
9799   30 05                bmi l97a0
979b   a0 00                ldy #$00
979d   4c 9b 95             jmp l959b
97a0   20 b1 96   l97a0     jsr l96b1
97a3   bd 84 10             lda $1084,x
97a6   4c 57 4c             jmp $4c57
97a9   a5 20      l97a9     lda $20
97ab   c9 d4                cmp #$d4
97ad   d0 05                bne l97b4
97af   bd 20 40             lda $4020,x
97b2   10 0e                bpl l97c2
97b4   bd 00 4a   l97b4     lda $4a00,x
97b7   c9 a8                cmp #$a8
97b9   f0 07                beq l97c2
97bb   bd 20 40             lda $4020,x
97be   29 08                and #$08
97c0   f0 03                beq l97c5
97c2   a9 01      l97c2     lda #$01
97c4   60                   rts
97c5   bd 20 40   l97c5     lda $4020,x
97c8   30 04                bmi l97ce
97ca   bd 40 40             lda $4040,x
97cd   60                   rts
97ce   20 b1 96   l97ce     jsr l96b1
97d1   bd 85 10             lda $1085,x
97d4   4c 57 4c             jmp $4c57
97d7   bd 20 40   l97d7     lda $4020,x
97da   30 05                bmi l97e1
97dc   a0 02                ldy #$02
97de   4c 9b 95             jmp l959b
97e1   20 b1 96   l97e1     jsr l96b1
97e4   bd 86 10             lda $1086,x
97e7   4c 57 4c             jmp $4c57
97ea   a0 06      l97ea     ldy #$06
97ec   84 88                sty $88
97ee   bd 20 40             lda $4020,x
97f1   10 36                bpl l9829
97f3   20 d5 9f             jsr l9fd5
97f6   48                   pha
97f7   aa                   tax
97f8   ad 5b 43             lda $435b
97fb   c9 28                cmp #$28
97fd   d0 0f                bne l980e
97ff   bd 90 11   l97ff     lda $1190,x
9802   c9 10                cmp #$10
9804   f0 08                beq l980e
9806   e8                   inx
9807   88                   dey
9808   d0 f5                bne l97ff
980a   68                   pla
980b   98                   tya
980c   f0 1a                beq l9828
980e   68         l980e     pla
980f   aa                   tax
9810   a9 00                lda #$00
9812   bc 90 11   l9812     ldy $1190,x
9815   f0 04                beq l981b
9817   18                   clc
9818   79 d6 46             adc $46d6,y
981b   e8         l981b     inx
981c   c6 88                dec $88
981e   d0 f2                bne l9812
9820   a6 20                ldx $20
9822   e0 d0                cpx #$d0
9824   d0 02                bne l9828
9826   69 02                adc #$02
9828   60         l9828     rts
9829   bd 00 4a   l9829     lda $4a00,x
982c   c9 a8                cmp #$a8
982e   d0 03                bne l9833
9830   a9 03                lda #$03
9832   60                   rts
9833   a0 03      l9833     ldy #$03
9835   4c 9b 95             jmp l959b
9838   bd 20 40   l9838     lda $4020,x
983b   30 0d                bmi l984a
983d   20 c6 98             jsr l98c6
9840   29 80                and #$80
9842   d0 03                bne l9847
9844   4c a9 97             jmp l97a9
9847   4c 96 97   l9847     jmp l9796
984a   2c 41 43   l984a     bit $4341
984d   10 03                bpl l9852
984f   4c 96 97             jmp l9796
9852   4c a9 97   l9852     jmp l97a9
9855   bd 20 40   l9855     lda $4020,x
9858   10 43                bpl l989d
985a   a9 01                lda #$01
985c   24 7f                bit $7f
985e   30 3c                bmi l989c
9860   a4 7f                ldy $7f
9862   c0 23                cpy #$23
9864   6e 51 43             ror $4351
9867   c0 27                cpy #$27
9869   d0 27                bne l9892
986b   20 00 4c             jsr $4c00
986e   d4                   ???                ;%11010100
986f   e8                   inx
9870   f9 a0 f3             sbc $f3a0,y
9873   f7                   ???                ;%11110111
9874   ef                   ???                ;%11101111
9875   f2                   ???                ;%11110010
9876   e4 a0                cpx $a0
9878   e8                   inx
9879   e1 f4                sbc ($f4,x)
987b   e8                   inx
987c   8d f3 e8             sta $e8f3
987f   e1 f4                sbc ($f4,x)
9881   f4                   ???                ;%11110100
9882   e5 f2                sbc $f2
9884   e5 e4                sbc $e4
9886   a1 8d                lda ($8d,x)
9888   8d 00 a6             sta $a600
988b   7d 20 e8             adc $e820,x
988e   98                   tya
988f   a9 63                lda #$63
9891   60                   rts
9892   c0 28      l9892     cpy #$28
9894   d0 03                bne l9899
9896   a9 00                lda #$00
9898   60                   rts
9899   b9 a0 46   l9899     lda $46a0,y
989c   60         l989c     rts
989d   a0 04      l989d     ldy #$04
989f   4c 9b 95             jmp l959b
98a2   a6 7e      l98a2     ldx $7e
98a4   20 ea 97             jsr l97ea
98a7   aa                   tax
98a8   20 db a3             jsr la3db
98ab   8e c0 98             stx $98c0
98ae   a6 7d                ldx $7d
98b0   20 55 98             jsr l9855
98b3   aa                   tax
98b4   20 db a3             jsr la3db
98b7   a9 63                lda #$63
98b9   e0 63                cpx #$63
98bb   f0 08                beq l98c5
98bd   8a                   txa
98be   38                   sec
98bf   e9 00                sbc #$00
98c1   d0 02                bne l98c5
98c3   a9 01                lda #$01
98c5   60         l98c5     rts
98c6   8e d5 98   l98c6     stx $98d5
98c9   bd 00 4a             lda $4a00,x
98cc   20 ea 96             jsr l96ea
98cf   0a                   asl a
98d0   aa                   tax
98d1   bd 39 45             lda $4539,x
98d4   a2 00                ldx #$00
98d6   60                   rts
98d7   8e e6 98   l98d7     stx $98e6
98da   bd 00 4a             lda $4a00,x
98dd   20 ea 96             jsr l96ea
98e0   0a                   asl a
98e1   aa                   tax
98e2   bd 38 45             lda $4538,x
98e5   a2 00                ldx #$00
98e7   60                   rts
98e8   20 d5 9f   l98e8     jsr l9fd5
98eb   8d f6 98   l98eb     sta $98f6
98ee   8c fe 98             sty $98fe
98f1   a9 05                lda #$05
98f3   48         l98f3     pha
98f4   18                   clc
98f5   69 00                adc #$00
98f7   a8                   tay
98f8   b9 90 11             lda $1190,y
98fb   e9 00                sbc #$00
98fd   c9 00                cmp #$00
98ff   d0 1a                bne l991b
9901   b9 90 11             lda $1190,y
9904   c9 25                cmp #$25
9906   f0 08                beq l9910
9908   c9 1b                cmp #$1b
990a   f0 04                beq l9910
990c   c9 1d                cmp #$1d
990e   d0 03                bne l9913
9910   ee b6 a5   l9910     inc $a5b6
9913   a9 00      l9913     lda #$00
9915   99 90 11             sta $1190,y
9918   68                   pla
9919   10 06                bpl l9921
991b   68         l991b     pla
991c   38                   sec
991d   e9 01                sbc #$01
991f   10 d2                bpl l98f3
9921   ac fe 98   l9921     ldy $98fe
9924   60                   rts
9925   2c 52 43   l9925     bit $4352
9928   10 0d                bpl l9937
992a   20 00 4c             jsr $4c00
992d   c6 e1                dec $e1
992f   e9 ec                sbc #$ec
9931   e5 e4                sbc $e4
9933   a1 8d                lda ($8d,x)
9935   00                   brk
9936   60                   rts
9937   a6 7e      l9937     ldx $7e
9939   20 00 97             jsr l9700
993c   a9 02                lda #$02
993e   4c ba 93             jmp l93ba
9941   a4 7e      l9941     ldy $7e
9943   b9 c0 4a             lda $4ac0,y
9946   8d 47 43             sta $4347
9949   b9 00 4a             lda $4a00,y
994c   8d 45 43             sta $4345
994f   b9 20 40             lda $4020,y
9952   8d 46 43             sta $4346
9955   60                   rts
9956   20 41 99   l9956     jsr l9941
9959   a6 7d                ldx $7d
995b   bd 20 40             lda $4020,x
995e   30 44                bmi l99a4
9960   bd 00 4a             lda $4a00,x
9963   c9 b0                cmp #$b0
9965   d0 0b                bne l9972
9967   a6 7e                ldx $7e
9969   20 3d a2             jsr la23d
996c   6e 43 43             ror $4343
996f   10 33                bpl l99a4
9971   60                   rts
9972   20 d7 98   l9972     jsr l98d7
9975   29 02                and #$02
9977   d0 07                bne l9980
9979   20 c6 98             jsr l98c6
997c   29 04                and #$04
997e   f0 24                beq l99a4
9980   a6 7e      l9980     ldx $7e
9982   bd 20 40             lda $4020,x
9985   10 16                bpl l999d
9987   20 27 4c             jsr $4c27
998a   c9 40                cmp #$40
998c   b0 16                bcs l99a4
998e   bd c0 4a             lda $4ac0,x
9991   0a                   asl a
9992   0a                   asl a
9993   0a                   asl a
9994   0a                   asl a
9995   a8                   tay
9996   b9 83 10             lda $1083,y
9999   c9 d0                cmp #$d0
999b   f0 07                beq l99a4
999d   20 f8 a2   l999d     jsr la2f8
99a0   6e 42 43             ror $4342
99a3   60                   rts
99a4   20 a2 98   l99a4     jsr l98a2
99a7   aa                   tax
99a8   6e 56 43             ror $4356
99ab   30 0f                bmi l99bc
99ad   a9 0f                lda #$0f
99af   20 4b 4c             jsr $4c4b
99b2   a6 7e                ldx $7e
99b4   20 00 97             jsr l9700
99b7   a9 18                lda #$18
99b9   4c ba 93             jmp l93ba
99bc   4e 50 43   l99bc     lsr $4350
99bf   20 41 99             jsr l9941
99c2   a4 7e                ldy $7e
99c4   b9 20 40             lda $4020,y
99c7   10 67                bpl l9a30
99c9   e0 63                cpx #$63
99cb   d0 08                bne l99d5
99cd   a6 7e                ldx $7e
99cf   20 b1 96             jsr l96b1
99d2   18                   clc
99d3   90 1c                bcc l99f1
99d5   8a         l99d5     txa
99d6   20 54 4c             jsr $4c54
99d9   8d e7 99             sta $99e7
99dc   a6 7e                ldx $7e
99de   20 b1 96             jsr l96b1
99e1   f8                   sed
99e2   bd 89 10             lda $1089,x
99e5   38                   sec
99e6   e9 00                sbc #$00
99e8   a8                   tay
99e9   bd 88 10             lda $1088,x
99ec   e9 00                sbc #$00
99ee   d8                   cld
99ef   b0 03                bcs l99f4
99f1   a9 00      l99f1     lda #$00
99f3   a8                   tay
99f4   9d 88 10   l99f4     sta $1088,x
99f7   98                   tya
99f8   9d 89 10             sta $1089,x
99fb   a4 7e                ldy $7e
99fd   bd 88 10             lda $1088,x
9a00   1d 89 10             ora $1089,x
9a03   f0 02                beq l9a07
9a05   b0 26                bcs l9a2d
9a07   a9 c4      l9a07     lda #$c4
9a09   9d 83 10             sta $1083,x
9a0c   8d 50 43             sta $4350
9a0f   a9 1e                lda #$1e
9a11   99 00 4a             sta $4a00,y
9a14   99 20 4a             sta $4a20,y
9a17   b9 20 40             lda $4020,y
9a1a   09 20                ora #$20
9a1c   29 f7                and #$f7
9a1e   99 20 40             sta $4020,y
9a21   b9 c0 4a             lda $4ac0,y
9a24   c5 2c                cmp $2c
9a26   d0 05                bne l9a2d
9a28   66 2c                ror $2c
9a2a   20 1b 4c             jsr $4c1b
9a2d   4c 30 4c   l9a2d     jmp $4c30
9a30   8e 6f 9a   l9a30     stx $9a6f
9a33   a6 7e                ldx $7e
9a35   a0 05                ldy #$05
9a37   20 9b 95             jsr l959b
9a3a   4a                   lsr a
9a3b   4a                   lsr a
9a3c   20 54 4c             jsr $4c54
9a3f   18                   clc
9a40   69 01                adc #$01
9a42   8d 47 a4             sta $a447
9a45   a6 7e                ldx $7e
9a47   a0 07                ldy #$07
9a49   20 9b 95             jsr l959b
9a4c   8d ef 9a             sta $9aef
9a4f   a6 7e                ldx $7e
9a51   20 c6 98             jsr l98c6
9a54   29 20                and #$20
9a56   f0 08                beq l9a60
9a58   2c 51 43             bit $4351
9a5b   30 03                bmi l9a60
9a5d   4e 6f 9a             lsr $9a6f
9a60   20 c6 98   l9a60     jsr l98c6
9a63   29 08                and #$08
9a65   f0 03                beq l9a6a
9a67   4c 46 9b             jmp l9b46
9a6a   bd c0 4a   l9a6a     lda $4ac0,x
9a6d   38                   sec
9a6e   e9 00                sbc #$00
9a70   f0 05                beq l9a77
9a72   90 03                bcc l9a77
9a74   4c 43 9b             jmp l9b43
9a77   38         l9a77     sec
9a78   6e 50 43             ror $4350
9a7b   a6 7e                ldx $7e
9a7d   20 ed 47             jsr $47ed
9a80   8d 6b 43             sta $436b
9a83   20 c6 98             jsr l98c6
9a86   29 01                and #$01
9a88   f0 3c                beq l9ac6
9a8a   20 d7 98             jsr l98d7
9a8d   29 10                and #$10
9a8f   f0 30                beq l9ac1
9a91   38                   sec
9a92   6e 4f 43             ror $434f
9a95   20 00 97             jsr l9700
9a98   a9 11                lda #$11
9a9a   20 ba 93             jsr l93ba
9a9d   a2 50                ldx #$50
9a9f   a0 30                ldy #$30
9aa1   a9 02                lda #$02
9aa3   20 4b 4c             jsr $4c4b
9aa6   a4 7e                ldy $7e
9aa8   be 00 4a             ldx $4a00,y
9aab   a9 16                lda #$16
9aad   99 00 4a             sta $4a00,y
9ab0   99 20 4a             sta $4a20,y
9ab3   ac 6b 43             ldy $436b
9ab6   20 69 4c             jsr $4c69
9ab9   a4 7e                ldy $7e
9abb   20 be 96             jsr l96be
9abe   4c 04 a5             jmp la504
9ac1   a4 7e      l9ac1     ldy $7e
9ac3   4c be 96             jmp l96be
9ac6   a4 7e      l9ac6     ldy $7e
9ac8   ad 6b 43             lda $436b
9acb   c9 87                cmp #$87
9acd   f0 45                beq l9b14
9acf   c9 04                cmp #$04
9ad1   90 41                bcc l9b14
9ad3   20 72 4c             jsr $4c72
9ad6   cd ef 9a             cmp $9aef
9ad9   08                   php
9ada   68                   pla
9adb   6a                   ror a
9adc   6a                   ror a
9add   29 80                and #$80
9adf   49 80                eor #$80
9ae1   99 c0 4a             sta $4ac0,y
9ae4   20 72 4c             jsr $4c72
9ae7   cd ef 9a             cmp $9aef
9aea   f0 02                beq l9aee
9aec   b0 0e                bcs l9afc
9aee   a9 00      l9aee     lda #$00
9af0   20 54 4c             jsr $4c54
9af3   19 c0 4a             ora $4ac0,y
9af6   99 c0 4a             sta $4ac0,y
9af9   a9 01                lda #$01
9afb   2c a9 1f             bit $1fa9
9afe   be 00 4a             ldx $4a00,y
9b01   e0 b8                cpx #$b8
9b03   d0 14                bne l9b19
9b05   b9 40 4a             lda $4a40,y
9b08   be 60 4a             ldx $4a60,y
9b0b   7d 42 47             adc $4742,x
9b0e   aa                   tax
9b0f   a9 4c                lda #$4c
9b11   9d ff 43             sta $43ff,x
9b14   20 be 96   l9b14     jsr l96be
9b17   a9 00                lda #$00
9b19   99 00 4a   l9b19     sta $4a00,y
9b1c   99 20 4a             sta $4a20,y
9b1f   b9 20 40             lda $4020,y
9b22   09 20                ora #$20
9b24   29 f7                and #$f7
9b26   99 20 40             sta $4020,y
9b29   ad 45 43             lda $4345
9b2c   29 fc                and #$fc
9b2e   c9 b0                cmp #$b0
9b30   d0 0e                bne l9b40
9b32   a6 7e                ldx $7e
9b34   bd 40 4a             lda $4a40,x
9b37   bc 60 4a             ldy $4a60,x
9b3a   aa                   tax
9b3b   a9 bc                lda #$bc
9b3d   20 e5 95             jsr l95e5
9b40   4c 1b 4c   l9b40     jmp $4c1b
9b43   9d c0 4a   l9b43     sta $4ac0,x
9b46   20 c6 98   l9b46     jsr l98c6
9b49   29 10                and #$10
9b4b   f0 44                beq l9b91
9b4d   a9 08                lda #$08
9b4f   8d 6b 9b             sta $9b6b
9b52   ce 6b 9b   l9b52     dec $9b6b
9b55   a6 7e                ldx $7e
9b57   bd 40 4a             lda $4a40,x
9b5a   bc 60 4a             ldy $4a60,x
9b5d   aa                   tax
9b5e   20 11 a2             jsr la211
9b61   b0 07                bcs l9b6a
9b63   a5 7e                lda $7e
9b65   20 11 93             jsr l9311
9b68   b0 06                bcs l9b70
9b6a   a9 00      l9b6a     lda #$00
9b6c   10 e4                bpl l9b52
9b6e   30 21                bmi l9b91
9b70   8e 79 9b   l9b70     stx $9b79
9b73   a6 7e                ldx $7e
9b75   bd 00 4a             lda $4a00,x
9b78   a2 00                ldx #$00
9b7a   20 e5 95             jsr l95e5
9b7d   b0 12                bcs l9b91
9b7f   a4 7e                ldy $7e
9b81   b9 c0 4a             lda $4ac0,y
9b84   9d c0 4a             sta $4ac0,x
9b87   a6 7e                ldx $7e
9b89   20 00 97             jsr l9700
9b8c   a9 0f                lda #$0f
9b8e   20 ba 93             jsr l93ba
9b91   60         l9b91     rts
9b92   8e 9b 9b   l9b92     stx $9b9b
9b95   8c a2 9b             sty $9ba2
9b98   a2 1f                ldx #$1f
9b9a   a9 00      l9b9a     lda #$00
9b9c   dd 40 4a             cmp $4a40,x
9b9f   d0 27                bne l9bc8
9ba1   a9 00                lda #$00
9ba3   dd 60 4a             cmp $4a60,x
9ba6   d0 20                bne l9bc8
9ba8   bd 20 4a             lda $4a20,x
9bab   c9 f4                cmp #$f4
9bad   f0 19                beq l9bc8
9baf   bd 20 40             lda $4020,x
9bb2   29 c0                and #$c0
9bb4   f0 12                beq l9bc8
9bb6   bd 20 40             lda $4020,x
9bb9   29 20                and #$20
9bbb   d0 0b                bne l9bc8
9bbd   bd 20 40             lda $4020,x
9bc0   29 04                and #$04
9bc2   d0 04                bne l9bc8
9bc4   8a                   txa
9bc5   18                   clc
9bc6   90 04                bcc l9bcc
9bc8   ca         l9bc8     dex
9bc9   10 cf                bpl l9b9a
9bcb   38                   sec
9bcc   ae 9b 9b   l9bcc     ldx $9b9b
9bcf   ac a2 9b             ldy $9ba2
9bd2   60                   rts
9bd3   20 fa 9b   l9bd3     jsr l9bfa
9bd6   a6 7d                ldx $7d
9bd8   bd 20 40             lda $4020,x
9bdb   29 02                and #$02
9bdd   f0 1a                beq l9bf9
9bdf   a0 ff                ldy #$ff
9be1   bd 40 4a             lda $4a40,x
9be4   c9 05                cmp #$05
9be6   90 02                bcc l9bea
9be8   a0 01                ldy #$01
9bea   84 a7      l9bea     sty $a7
9bec   a0 ff                ldy #$ff
9bee   bd 60 4a             lda $4a60,x
9bf1   c9 05                cmp #$05
9bf3   90 02                bcc l9bf7
9bf5   a0 01                ldy #$01
9bf7   84 a8      l9bf7     sty $a8
9bf9   60         l9bf9     rts
9bfa   4e b3 9c   l9bfa     lsr $9cb3
9bfd   a0 ff                ldy #$ff
9bff   8c 72 9c             sty $9c72
9c02   20 0c 94             jsr l940c
9c05   90 03                bcc l9c0a
9c07   a9 b0                lda #$b0
9c09   2c a9 90             bit $90a9
9c0c   8d 6a 9c             sta $9c6a
9c0f   a2 1f                ldx #$1f
9c11   8e a4 9c   l9c11     stx $9ca4
9c14   bd 20 40             lda $4020,x
9c17   29 20                and #$20
9c19   f0 03                beq l9c1e
9c1b   4c a3 9c             jmp l9ca3
9c1e   bd 20 40   l9c1e     lda $4020,x
9c21   29 c0                and #$c0
9c23   f0 7e                beq l9ca3
9c25   ad 5b 43             lda $435b
9c28   c9 28                cmp #$28
9c2a   f0 10                beq l9c3c
9c2c   a4 7d                ldy $7d
9c2e   b9 00 4a             lda $4a00,y
9c31   c9 fc                cmp #$fc
9c33   f0 07                beq l9c3c
9c35   bd 20 40             lda $4020,x
9c38   29 10                and #$10
9c3a   d0 67                bne l9ca3
9c3c   bd 20 40   l9c3c     lda $4020,x
9c3f   29 04                and #$04
9c41   f0 06                beq l9c49
9c43   38                   sec
9c44   6e b3 9c             ror $9cb3
9c47   30 5a                bmi l9ca3
9c49   a5 20      l9c49     lda $20
9c4b   c9 c3                cmp #$c3
9c4d   d0 18                bne l9c67
9c4f   8e 58 9c             stx $9c58
9c52   a6 7d                ldx $7d
9c54   20 d7 97             jsr l97d7
9c57   a2 00                ldx #$00
9c59   8d 60 9c             sta $9c60
9c5c   20 72 4c             jsr $4c72
9c5f   c9 00                cmp #$00
9c61   90 04                bcc l9c67
9c63   e4 7d                cpx $7d
9c65   d0 05                bne l9c6c
9c67   20 0c 94   l9c67     jsr l940c
9c6a   90 37                bcc l9ca3
9c6c   a4 7d      l9c6c     ldy $7d
9c6e   20 fd 94             jsr l94fd
9c71   c9 00                cmp #$00
9c73   b0 2e                bcs l9ca3
9c75   8d 72 9c             sta $9c72
9c78   a9 00                lda #$00
9c7a   85 a7                sta $a7
9c7c   85 a8                sta $a8
9c7e   ae a4 9c             ldx $9ca4
9c81   a4 7d                ldy $7d
9c83   bd 40 4a             lda $4a40,x
9c86   d9 40 4a             cmp $4a40,y
9c89   f0 07                beq l9c92
9c8b   b0 03                bcs l9c90
9c8d   c6 a7                dec $a7
9c8f   2c e6 a7             bit $a7e6
9c92   bd 60 4a   l9c92     lda $4a60,x
9c95   d9 60 4a             cmp $4a60,y
9c98   f0 07                beq l9ca1
9c9a   b0 03                bcs l9c9f
9c9c   c6 a8                dec $a8
9c9e   2c e6 a8             bit $a8e6
9ca1   86 7e      l9ca1     stx $7e
9ca3   a2 00      l9ca3     ldx #$00
9ca5   ca                   dex
9ca6   30 03                bmi l9cab
9ca8   4c 11 9c             jmp l9c11
9cab   ad 72 9c   l9cab     lda $9c72
9cae   c9 ff                cmp #$ff
9cb0   d0 24                bne l9cd6
9cb2   a9 00                lda #$00
9cb4   30 21                bmi l9cd7
9cb6   20 04 a5             jsr la504
9cb9   30 1c                bmi l9cd7
9cbb   a2 1f                ldx #$1f
9cbd   20 0c 94   l9cbd     jsr l940c
9cc0   90 0f                bcc l9cd1
9cc2   bd 20 40             lda $4020,x
9cc5   09 02                ora #$02
9cc7   9d 20 40             sta $4020,x
9cca   30 05                bmi l9cd1
9ccc   a9 01                lda #$01
9cce   9d c0 4a             sta $4ac0,x
9cd1   ca         l9cd1     dex
9cd2   10 e9                bpl l9cbd
9cd4   86 7e                stx $7e
9cd6   60         l9cd6     rts
9cd7   68         l9cd7     pla
9cd8   68                   pla
9cd9   68                   pla
9cda   68                   pla
9cdb   68                   pla
9cdc   68                   pla
9cdd   60                   rts
9cde   a6 7d      l9cde     ldx $7d
9ce0   bd 00 4a             lda $4a00,x
9ce3   29 f8                and #$f8
9ce5   c9 a8                cmp #$a8
9ce7   f0 48                beq l9d31
9ce9   bd 20 40             lda $4020,x
9cec   30 44                bmi l9d32
9cee   20 d7 98             jsr l98d7
9cf1   29 20                and #$20
9cf3   f0 3d                beq l9d32
9cf5   a5 20                lda $20
9cf7   c9 89                cmp #$89
9cf9   f0 37                beq l9d32
9cfb   c9 ce                cmp #$ce
9cfd   f0 33                beq l9d32
9cff   a5 7d                lda $7d
9d01   20 c1 92             jsr l92c1
9d04   f0 07                beq l9d0d
9d06   20 27 4c             jsr $4c27
9d09   29 03                and #$03
9d0b   d0 25                bne l9d32
9d0d   20 fe a1   l9d0d     jsr la1fe
9d10   b0 20                bcs l9d32
9d12   a5 7d                lda $7d
9d14   20 11 93             jsr l9311
9d17   90 19                bcc l9d32
9d19   8a                   txa
9d1a   a6 7d                ldx $7d
9d1c   9d 40 4a             sta $4a40,x
9d1f   98                   tya
9d20   9d 60 4a             sta $4a60,x
9d23   20 9b 93             jsr l939b
9d26   a6 7d                ldx $7d
9d28   20 00 97             jsr l9700
9d2b   a9 0c                lda #$0c
9d2d   20 ba 93             jsr l93ba
9d30   18                   clc
9d31   60         l9d31     rts
9d32   a5 7d      l9d32     lda $7d
9d34   20 c1 92             jsr l92c1
9d37   f0 67                beq l9da0
9d39   a9 04                lda #$04
9d3b   8d 49 43             sta $4349
9d3e   a6 7d                ldx $7d
9d40   bd 40 4a             lda $4a40,x
9d43   8d 4a 43             sta $434a
9d46   bd 60 4a             lda $4a60,x
9d49   8d 4b 43             sta $434b
9d4c   8e 4c 43             stx $434c
9d4f   20 d3 9b             jsr l9bd3
9d52   20 27 4c   l9d52     jsr $4c27
9d55   4a                   lsr a
9d56   90 05                bcc l9d5d
9d58   20 be 9d             jsr l9dbe
9d5b   b0 23                bcs l9d80
9d5d   20 d1 9d   l9d5d     jsr l9dd1
9d60   b0 1e                bcs l9d80
9d62   20 be 9d             jsr l9dbe
9d65   b0 19                bcs l9d80
9d67   20 27 4c   l9d67     jsr $4c27
9d6a   29 01                and #$01
9d6c   aa                   tax
9d6d   bd bc 9d             lda $9dbc,x
9d70   85 a7                sta $a7
9d72   20 27 4c             jsr $4c27
9d75   29 01                and #$01
9d77   aa                   tax
9d78   bd bc 9d             lda $9dbc,x
9d7b   85 a8                sta $a8
9d7d   4c 52 9d             jmp l9d52
9d80   8e b1 9d   l9d80     stx $9db1
9d83   8c b6 9d             sty $9db6
9d86   8a                   txa
9d87   a6 7d                ldx $7d
9d89   dd 80 40             cmp $4080,x
9d8c   d0 14                bne l9da2
9d8e   98                   tya
9d8f   dd a0 40             cmp $40a0,x
9d92   d0 0e                bne l9da2
9d94   20 27 4c             jsr $4c27
9d97   29 03                and #$03
9d99   f0 07                beq l9da2
9d9b   ce 49 43             dec $4349
9d9e   d0 c7                bne l9d67
9da0   38         l9da0     sec
9da1   60                   rts
9da2   a6 7d      l9da2     ldx $7d
9da4   bd 40 4a             lda $4a40,x
9da7   9d 80 40             sta $4080,x
9daa   bd 60 4a             lda $4a60,x
9dad   9d a0 40             sta $40a0,x
9db0   a9 00                lda #$00
9db2   9d 40 4a             sta $4a40,x
9db5   a9 00                lda #$00
9db7   9d 60 4a             sta $4a60,x
9dba   18                   clc
9dbb   60                   rts
9dbc   01 ff                ora ($ff,x)
9dbe   18         l9dbe     clc
9dbf   a5 a7                lda $a7
9dc1   f0 0d                beq l9dd0
9dc3   6d 4a 43             adc $434a
9dc6   aa                   tax
9dc7   ac 4b 43             ldy $434b
9dca   ad 4c 43             lda $434c
9dcd   20 eb 92             jsr l92eb
9dd0   60         l9dd0     rts
9dd1   18         l9dd1     clc
9dd2   a5 a8                lda $a8
9dd4   f0 0d                beq l9de3
9dd6   6d 4b 43             adc $434b
9dd9   a8                   tay
9dda   ae 4a 43             ldx $434a
9ddd   ad 4c 43             lda $434c
9de0   20 eb 92             jsr l92eb
9de3   60         l9de3     rts
9de4   38         l9de4     sec
9de5   66 73                ror $73
9de7   a6 7d                ldx $7d
9de9   bd a0 41             lda $41a0,x
9dec   30 10                bmi l9dfe
9dee   aa                   tax
9def   bd 20 40             lda $4020,x
9df2   f0 0a                beq l9dfe
9df4   29 30                and #$30
9df6   d0 06                bne l9dfe
9df8   bd 00 4a             lda $4a00,x
9dfb   f0 01                beq l9dfe
9dfd   2c a6 7d             bit $7da6
9e00   bd 40 4a             lda $4a40,x
9e03   85 9c                sta $9c
9e05   bd 60 4a             lda $4a60,x
9e08   85 9e                sta $9e
9e0a   a6 9c                ldx $9c
9e0c   a4 9e                ldy $9e
9e0e   20 8b 9e             jsr l9e8b
9e11   b0 eb                bcs l9dfe
9e13   20 1b 4c   l9e13     jsr $4c1b
9e16   20 15 4c             jsr $4c15
9e19   20 37 97             jsr l9737
9e1c   8d 3a 9e             sta $9e3a
9e1f   a6 9c                ldx $9c
9e21   a4 9e                ldy $9e
9e23   c9 c1                cmp #$c1
9e25   f0 04                beq l9e2b
9e27   c9 a0                cmp #$a0
9e29   d0 16                bne l9e41
9e2b   8a         l9e2b     txa
9e2c   a6 7d                ldx $7d
9e2e   dd 40 4a             cmp $4a40,x
9e31   d0 2a                bne l9e5d
9e33   98                   tya
9e34   dd 60 4a             cmp $4a60,x
9e37   d0 24                bne l9e5d
9e39   a9 00                lda #$00
9e3b   c9 c1                cmp #$c1
9e3d   f0 d4                beq l9e13
9e3f   d0 15                bne l9e56
9e41   c9 85      l9e41     cmp #$85
9e43   f0 11                beq l9e56
9e45   20 70 9e             jsr l9e70
9e48   b0 c9                bcs l9e13
9e4a   20 8b 9e             jsr l9e8b
9e4d   b0 c4                bcs l9e13
9e4f   86 9c                stx $9c
9e51   84 9e                sty $9e
9e53   4c 13 9e             jmp l9e13
9e56   20 06 4c   l9e56     jsr $4c06
9e59   46 73                lsr $73
9e5b   38                   sec
9e5c   60                   rts
9e5d   20 9b 93   l9e5d     jsr l939b
9e60   2c 52 43             bit $4352
9e63   10 07                bpl l9e6c
9e65   a2 10                ldx #$10
9e67   a9 10                lda #$10
9e69   20 4b 4c             jsr $4c4b
9e6c   46 73      l9e6c     lsr $73
9e6e   18                   clc
9e6f   60                   rts
9e70   c9 ee      l9e70     cmp #$ee
9e72   d0 01                bne l9e75
9e74   88                   dey
9e75   c9 f3      l9e75     cmp #$f3
9e77   d0 01                bne l9e7a
9e79   c8                   iny
9e7a   c9 e5      l9e7a     cmp #$e5
9e7c   d0 01                bne l9e7f
9e7e   e8                   inx
9e7f   c9 f7      l9e7f     cmp #$f7
9e81   d0 01                bne l9e84
9e83   ca                   dex
9e84   e0 0b      l9e84     cpx #$0b
9e86   b0 02                bcs l9e8a
9e88   c0 0b                cpy #$0b
9e8a   60         l9e8a     rts
9e8b   8e b1 9e   l9e8b     stx $9eb1
9e8e   8a                   txa
9e8f   a6 7d                ldx $7d
9e91   38                   sec
9e92   fd 40 4a             sbc $4a40,x
9e95   b0 04                bcs l9e9b
9e97   49 ff                eor #$ff
9e99   69 01                adc #$01
9e9b   85 a9      l9e9b     sta $a9
9e9d   98                   tya
9e9e   38                   sec
9e9f   fd 60 4a             sbc $4a60,x
9ea2   b0 04                bcs l9ea8
9ea4   49 ff                eor #$ff
9ea6   69 01                adc #$01
9ea8   85 aa      l9ea8     sta $aa
9eaa   20 1b 95             jsr l951b
9ead   e4 a5                cpx $a5
9eaf   08                   php
9eb0   a2 00                ldx #$00
9eb2   28                   plp
9eb3   90 03                bcc l9eb8
9eb5   d0 01                bne l9eb8
9eb7   18                   clc
9eb8   60         l9eb8     rts
9eb9   00                   brk
9eba   a6 7d      l9eba     ldx $7d
9ebc   bd 40 4a             lda $4a40,x
9ebf   85 8a                sta $8a
9ec1   bd 60 4a             lda $4a60,x
9ec4   85 8b                sta $8b
9ec6   b0 15                bcs l9edd
9ec8   a6 8c      l9ec8     ldx $8c
9eca   a4 8d                ldy $8d
9ecc   20 11 a2             jsr la211
9ecf   b0 f7                bcs l9ec8
9ed1   e4 8a                cpx $8a
9ed3   d0 04                bne l9ed9
9ed5   c4 8b                cpy $8b
9ed7   f0 ef                beq l9ec8
9ed9   86 8c      l9ed9     stx $8c
9edb   84 8d                sty $8d
9edd   a5 7f      l9edd     lda $7f
9edf   c9 19                cmp #$19
9ee1   f0 04                beq l9ee7
9ee3   c9 22                cmp #$22
9ee5   d0 06                bne l9eed
9ee7   a6 8c      l9ee7     ldx $8c
9ee9   a4 8d                ldy $8d
9eeb   10 0e                bpl l9efb
9eed   ad 44 43   l9eed     lda $4344
9ef0   20 0c 6c             jsr $6c0c
9ef3   b0 21                bcs l9f16
9ef5   20 12 6c             jsr $6c12
9ef8   20 51 9f             jsr l9f51
9efb   20 92 9b   l9efb     jsr l9b92
9efe   08                   php
9eff   20 1f 9f             jsr l9f1f
9f02   28                   plp
9f03   2c 52 43             bit $4352
9f06   10 04                bpl l9f0c
9f08   24 9f                bit $9f
9f0a   10 0a                bpl l9f16
9f0c   b0 08      l9f0c     bcs l9f16
9f0e   c5 7d                cmp $7d
9f10   f0 04                beq l9f16
9f12   18                   clc
9f13   85 7e                sta $7e
9f15   60                   rts
9f16   a9 00      l9f16     lda #$00
9f18   85 9f                sta $9f
9f1a   a9 ff                lda #$ff
9f1c   85 7e                sta $7e
9f1e   60                   rts
9f1f   48         l9f1f     pha
9f20   a5 7f                lda $7f
9f22   c9 13                cmp #$13
9f24   f0 12                beq l9f38
9f26   c9 33                cmp #$33
9f28   f0 11                beq l9f3b
9f2a   c9 34                cmp #$34
9f2c   f0 13                beq l9f41
9f2e   c9 35                cmp #$35
9f30   f0 06                beq l9f38
9f32   c9 36                cmp #$36
9f34   f0 08                beq l9f3e
9f36   68                   pla
9f37   60                   rts
9f38   a9 ea      l9f38     lda #$ea
9f3a   2c a9 e8             bit $e8a9
9f3d   2c a9 eb             bit $eba9
9f40   2c a9 e9             bit $e9a9
9f43   20 2f 96             jsr l962f
9f46   68                   pla
9f47   60                   rts
9f48   a6 7d      l9f48     ldx $7d
9f4a   bc 60 4a             ldy $4a60,x
9f4d   bd 40 4a             lda $4a40,x
9f50   aa                   tax
9f51   4e ae 9f   l9f51     lsr $9fae
9f54   2c 58 43             bit $4358
9f57   10 54                bpl l9fad
9f59   8e 6d 9f             stx $9f6d
9f5c   8c 74 9f             sty $9f74
9f5f   a0 07                ldy #$07
9f61   b9 c0 40   l9f61     lda $40c0,y
9f64   19 c8 40             ora $40c8,y
9f67   f0 3b                beq l9fa4
9f69   b9 c0 40             lda $40c0,y
9f6c   c9 00                cmp #$00
9f6e   d0 34                bne l9fa4
9f70   b9 c8 40             lda $40c8,y
9f73   c9 00                cmp #$00
9f75   d0 2d                bne l9fa4
9f77   6e ae 9f             ror $9fae
9f7a   a9 00                lda #$00
9f7c   99 c0 40             sta $40c0,y
9f7f   99 c8 40             sta $40c8,y
9f82   be e8 40             ldx $40e8,y
9f85   bd 42 47             lda $4742,x
9f88   18                   clc
9f89   79 d8 40             adc $40d8,y
9f8c   aa                   tax
9f8d   b9 d0 40             lda $40d0,y
9f90   9d 00 44             sta $4400,x
9f93   be f0 40             ldx $40f0,y
9f96   bd 42 47             lda $4742,x
9f99   18                   clc
9f9a   79 e0 40             adc $40e0,y
9f9d   aa                   tax
9f9e   b9 d0 40             lda $40d0,y
9fa1   9d 00 44             sta $4400,x
9fa4   88         l9fa4     dey
9fa5   10 ba                bpl l9f61
9fa7   ae 6d 9f             ldx $9f6d
9faa   ac 74 9f             ldy $9f74
9fad   a9 00      l9fad     lda #$00
9faf   60                   rts
9fb0   a0 1f      l9fb0     ldy #$1f
9fb2   b9 00 4a   l9fb2     lda $4a00,y
9fb5   29 fc                and #$fc
9fb7   c9 e8                cmp #$e8
9fb9   f0 04                beq l9fbf
9fbb   88         l9fbb     dey
9fbc   10 f4                bpl l9fb2
9fbe   60                   rts
9fbf   20 27 4c   l9fbf     jsr $4c27
9fc2   29 0f                and #$0f
9fc4   d0 f5                bne l9fbb
9fc6   20 be 96             jsr l96be
9fc9   8c d2 9f             sty $9fd2
9fcc   a9 13                lda #$13
9fce   20 4b 4c             jsr $4c4b
9fd1   a0 00                ldy #$00
9fd3   10 dd                bpl l9fb2
9fd5   bd c0 4a   l9fd5     lda $4ac0,x
9fd8   0a                   asl a
9fd9   0a                   asl a
9fda   7d c0 4a             adc $4ac0,x
9fdd   7d c0 4a             adc $4ac0,x
9fe0   60                   rts
9fe1   2c 56 43   l9fe1     bit $4356
9fe4   10 08                bpl l9fee
9fe6   2c 4f 43             bit $434f
9fe9   10 08                bpl l9ff3
9feb   4e 4f 43             lsr $434f
9fee   38         l9fee     sec
9fef   6e 56 43             ror $4356
9ff2   60                   rts
9ff3   a6 7e      l9ff3     ldx $7e
9ff5   2c 50 43             bit $4350
9ff8   10 07                bpl la001
9ffa   20 f0 96             jsr l96f0
9ffd   a9 01                lda #$01
9fff   d0 54                bne la055
a001   2c 42 43   la001     bit $4342
a004   30 52                bmi la058
a006   20 f0 96             jsr l96f0
a009   2c 43 43             bit $4343
a00c   10 04                bpl la012
a00e   a9 1c                lda #$1c
a010   d0 43                bne la055
a012   ad 46 43   la012     lda $4346
a015   10 35                bpl la04c
a017   a6 7d                ldx $7d
a019   bc 00 4a             ldy $4a00,x
a01c   c0 f4                cpy #$f4
a01e   d0 28                bne la048
a020   a9 16                lda #$16
a022   20 ba 93             jsr l93ba
a025   a9 11                lda #$11
a027   20 4b 4c             jsr $4c4b
a02a   a6 7e                ldx $7e
a02c   bd 20 40             lda $4020,x
a02f   09 04                ora #$04
a031   9d 20 40             sta $4020,x
a034   a9 00                lda #$00
a036   9d 20 4a             sta $4a20,x
a039   20 1b 4c             jsr $4c1b
a03c   20 1b 4c             jsr $4c1b
a03f   20 1b 4c             jsr $4c1b
a042   20 1b 4c             jsr $4c1b
a045   4c 58 a0             jmp la058
a048   a9 00      la048     lda #$00
a04a   f0 09                beq la055
a04c   20 5f a0   la04c     jsr la05f
a04f   2c 42 43             bit $4342
a052   30 04                bmi la058
a054   98                   tya
a055   20 ba 93   la055     jsr l93ba
a058   4e 42 43   la058     lsr $4342
a05b   4e 43 43             lsr $4343
a05e   60                   rts
a05f   a6 7e      la05f     ldx $7e
a061   a0 05                ldy #$05
a063   20 9b 95             jsr l959b
a066   4a                   lsr a
a067   4a                   lsr a
a068   d0 02                bne la06c
a06a   a9 01                lda #$01
a06c   8d 78 a0   la06c     sta $a078
a06f   a0 07                ldy #$07
a071   a6 7e                ldx $7e
a073   bd c0 4a             lda $4ac0,x
a076   38                   sec
a077   e9 00      la077     sbc #$00
a079   90 03                bcc la07e
a07b   88                   dey
a07c   10 f9                bpl la077
a07e   c0 02      la07e     cpy #$02
a080   d0 01                bne la083
a082   c8                   iny
a083   c0 03      la083     cpy #$03
a085   d0 01                bne la088
a087   c8                   iny
a088   a6 7e      la088     ldx $7e
a08a   bd 20 40             lda $4020,x
a08d   c0 07                cpy #$07
a08f   90 03                bcc la094
a091   09 02                ora #$02
a093   2c 29 fd             bit $fd29
a096   9d 20 40             sta $4020,x
a099   60                   rts
a09a   a9 00      la09a     lda #$00
a09c   8d bb a0             sta $a0bb
a09f   a2 1f                ldx #$1f
a0a1   bd 20 40   la0a1     lda $4020,x
a0a4   29 20                and #$20
a0a6   d0 0f                bne la0b7
a0a8   bd 20 40             lda $4020,x
a0ab   29 c0                and #$c0
a0ad   f0 08                beq la0b7
a0af   20 0c 94             jsr l940c
a0b2   90 03                bcc la0b7
a0b4   ee bb a0             inc $a0bb
a0b7   ca         la0b7     dex
a0b8   10 e7                bpl la0a1
a0ba   a9 00                lda #$00
a0bc   60                   rts
a0bd   a9 00      la0bd     lda #$00
a0bf   8d de a0             sta $a0de
a0c2   a2 1f                ldx #$1f
a0c4   bd 20 40   la0c4     lda $4020,x
a0c7   29 20                and #$20
a0c9   d0 0f                bne la0da
a0cb   bd 20 40             lda $4020,x
a0ce   29 c0                and #$c0
a0d0   f0 08                beq la0da
a0d2   20 0c 94             jsr l940c
a0d5   b0 03                bcs la0da
a0d7   ee de a0             inc $a0de
a0da   ca         la0da     dex
a0db   10 e7                bpl la0c4
a0dd   a9 00                lda #$00
a0df   60                   rts
a0e0   a5 20      la0e0     lda $20
a0e2   c9 89                cmp #$89
a0e4   f0 04                beq la0ea
a0e6   c9 ce                cmp #$ce
a0e8   d0 02                bne la0ec
a0ea   18         la0ea     clc
a0eb   60                   rts
a0ec   a6 7d      la0ec     ldx $7d
a0ee   bd 20 40             lda $4020,x
a0f1   18                   clc
a0f2   30 5c                bmi la150
a0f4   20 c6 98             jsr l98c6
a0f7   29 40                and #$40
a0f9   f0 56                beq la151
a0fb   20 27 4c             jsr $4c27
a0fe   29 1f                and #$1f
a100   aa                   tax
a101   bd 20 40             lda $4020,x
a104   10 4b                bpl la151
a106   29 3d                and #$3d
a108   d0 47                bne la151
a10a   86 7e                stx $7e
a10c   20 7f 95             jsr l957f
a10f   24 9f                bit $9f
a111   10 3c                bpl la14f
a113   20 9b 93             jsr l939b
a116   a6 7e                ldx $7e
a118   bd 20 40             lda $4020,x
a11b   09 01                ora #$01
a11d   9d 20 40             sta $4020,x
a120   10 0e                bpl la130
a122   bd c0 4a             lda $4ac0,x
a125   c5 2c                cmp $2c
a127   d0 02                bne la12b
a129   66 2c                ror $2c
a12b   20 30 4c   la12b     jsr $4c30
a12e   a6 7e                ldx $7e
a130   20 00 97   la130     jsr l9700
a133   a9 15                lda #$15
a135   20 ba 93             jsr l93ba
a138   a2 c0                ldx #$c0
a13a   a0 30                ldy #$30
a13c   a9 02                lda #$02
a13e   20 4b 4c             jsr $4c4b
a141   a4 7d                ldy $7d
a143   b9 00 4a             lda $4a00,y
a146   29 fc                and #$fc
a148   c9 d8                cmp #$d8
a14a   d0 03                bne la14f
a14c   20 be 96             jsr l96be
a14f   38         la14f     sec
a150   60         la150     rts
a151   a6 7d      la151     ldx $7d
a153   20 d7 98             jsr l98d7
a156   29 08                and #$08
a158   f0 3e                beq la198
a15a   20 27 4c             jsr $4c27
a15d   29 07                and #$07
a15f   d0 37                bne la198
a161   20 9b 93             jsr l939b
a164   a6 7d                ldx $7d
a166   20 00 97             jsr l9700
a169   bd 20 4a             lda $4a20,x
a16c   d0 17                bne la185
a16e   a9 0e                lda #$0e
a170   20 ba 93             jsr l93ba
a173   a6 7d                ldx $7d
a175   a9 ef                lda #$ef
a177   3d 20 40             and $4020,x
a17a   9d 20 40             sta $4020,x
a17d   bd 00 4a             lda $4a00,x
a180   9d 20 4a   la180     sta $4a20,x
a183   38                   sec
a184   60                   rts
a185   a9 0d      la185     lda #$0d
a187   20 ba 93             jsr l93ba
a18a   a6 7d                ldx $7d
a18c   a9 10                lda #$10
a18e   1d 20 40             ora $4020,x
a191   9d 20 40             sta $4020,x
a194   a9 00                lda #$00
a196   f0 e8                beq la180
a198   a6 7d      la198     ldx $7d
a19a   20 d7 98             jsr l98d7
a19d   29 04                and #$04
a19f   f0 5b                beq la1fc
a1a1   20 27 4c             jsr $4c27
a1a4   29 1f                and #$1f
a1a6   d0 54                bne la1fc
a1a8   20 fe a1             jsr la1fe
a1ab   b0 4f                bcs la1fc
a1ad   a9 d8                lda #$d8
a1af   20 20 93             jsr l9320
a1b2   90 48                bcc la1fc
a1b4   8e e3 a1             stx $a1e3
a1b7   8c e5 a1             sty $a1e5
a1ba   20 e5 95             jsr l95e5
a1bd   b0 3d                bcs la1fc
a1bf   8e d0 a1             stx $a1d0
a1c2   20 9b 93             jsr l939b
a1c5   a6 7d                ldx $7d
a1c7   20 00 97             jsr l9700
a1ca   a9 10                lda #$10
a1cc   20 ba 93             jsr l93ba
a1cf   a2 00                ldx #$00
a1d1   a9 16                lda #$16
a1d3   9d 00 4a             sta $4a00,x
a1d6   9d 20 4a             sta $4a20,x
a1d9   a2 d8                ldx #$d8
a1db   a0 10                ldy #$10
a1dd   a9 02                lda #$02
a1df   20 4b 4c             jsr $4c4b
a1e2   a0 00                ldy #$00
a1e4   a2 00                ldx #$00
a1e6   20 45 4c             jsr $4c45
a1e9   aa                   tax
a1ea   a0 d8                ldy #$d8
a1ec   20 66 4c             jsr $4c66
a1ef   ae d0 a1             ldx $a1d0
a1f2   a9 d8                lda #$d8
a1f4   9d 00 4a             sta $4a00,x
a1f7   9d 20 4a             sta $4a20,x
a1fa   38                   sec
a1fb   60                   rts
a1fc   18         la1fc     clc
a1fd   60                   rts
a1fe   20 27 4c   la1fe     jsr $4c27
a201   29 0f                and #$0f
a203   aa                   tax
a204   20 27 4c             jsr $4c27
a207   29 0f                and #$0f
a209   a8                   tay
a20a   c0 0b                cpy #$0b
a20c   b0 02                bcs la210
a20e   e0 0b                cpx #$0b
a210   60         la210     rts
a211   8e 23 a2   la211     stx $a223
a214   8c 31 a2             sty $a231
a217   20 27 4c   la217     jsr $4c27
a21a   29 03                and #$03
a21c   f0 f9                beq la217
a21e   38                   sec
a21f   e9 02                sbc #$02
a221   18                   clc
a222   69 00                adc #$00
a224   aa                   tax
a225   20 27 4c   la225     jsr $4c27
a228   29 03                and #$03
a22a   f0 f9                beq la225
a22c   38                   sec
a22d   e9 02                sbc #$02
a22f   18                   clc
a230   69 00                adc #$00
a232   a8                   tay
a233   e0 0b                cpx #$0b
a235   b0 02                bcs la239
a237   c0 0b                cpy #$0b
a239   60         la239     rts
a23a   a9 d0      la23a     lda #$d0
a23c   2c a9 ad             bit $ada9
a23f   85 fc                sta $fc
a241   bd 20 40             lda $4020,x
a244   10 46                bpl la28c
a246   8e 60 a2             stx $a260
a249   20 b1 96             jsr l96b1
a24c   bd 83 10             lda $1083,x
a24f   c9 c4                cmp #$c4
a251   f0 37                beq la28a
a253   c5 fc                cmp $fc
a255   f0 33                beq la28a
a257   c9 d3                cmp #$d3
a259   08                   php
a25a   a9 d3                lda #$d3
a25c   9d 83 10             sta $1083,x
a25f   a2 00                ldx #$00
a261   bd c0 4a             lda $4ac0,x
a264   c5 2c                cmp $2c
a266   d0 02                bne la26a
a268   66 2c                ror $2c
a26a   bd 20 40   la26a     lda $4020,x
a26d   09 08                ora #$08
a26f   9d 20 40             sta $4020,x
a272   a9 1e                lda #$1e
a274   9d 00 4a             sta $4a00,x
a277   9d 20 4a             sta $4a20,x
a27a   20 30 4c             jsr $4c30
a27d   ad 58 43             lda $4358
a280   29 04                and #$04
a282   d0 03                bne la287
a284   20 1b 4c             jsr $4c1b
a287   28         la287     plp
a288   d0 12                bne la29c
a28a   18         la28a     clc
a28b   60                   rts
a28c   09 08      la28c     ora #$08
a28e   9d 20 40             sta $4020,x
a291   bd 00 42             lda $4200,x
a294   09 0f                ora #$0f
a296   9d 00 42             sta $4200,x
a299   20 1b 4c             jsr $4c1b
a29c   38         la29c     sec
a29d   60                   rts
a29e   20 27 4c   la29e     jsr $4c27
a2a1   29 1f                and #$1f
a2a3   c9 1e                cmp #$1e
a2a5   b0 01                bcs la2a8
a2a7   60                   rts
a2a8   bd 20 40   la2a8     lda $4020,x
a2ab   29 08                and #$08
a2ad   f0 48                beq la2f7
a2af   bd 20 40             lda $4020,x
a2b2   29 f7                and #$f7
a2b4   9d 20 40             sta $4020,x
a2b7   10 36                bpl la2ef
a2b9   bc c0 4a             ldy $4ac0,x
a2bc   8e d6 a2             stx $a2d6
a2bf   20 b4 96             jsr l96b4
a2c2   a9 c7                lda #$c7
a2c4   9d 83 10             sta $1083,x
a2c7   a0 ff                ldy #$ff
a2c9   c8         la2c9     iny
a2ca   b9 66 47             lda $4766,y
a2cd   dd 82 10             cmp $1082,x
a2d0   d0 f7                bne la2c9
a2d2   b9 6f 47             lda $476f,y
a2d5   a2 00                ldx #$00
a2d7   9d 00 4a             sta $4a00,x
a2da   9d 20 4a             sta $4a20,x
a2dd   bd 20 40             lda $4020,x
a2e0   29 10                and #$10
a2e2   f0 08                beq la2ec
a2e4   a9 1d                lda #$1d
a2e6   9d 00 4a             sta $4a00,x
a2e9   9d 20 4a             sta $4a20,x
a2ec   4c 30 4c   la2ec     jmp $4c30
a2ef   bd 00 42   la2ef     lda $4200,x
a2f2   29 f1                and #$f1
a2f4   9d 00 42             sta $4200,x
a2f7   60         la2f7     rts
a2f8   18         la2f8     clc
a2f9   a6 7e                ldx $7e
a2fb   bd 20 40             lda $4020,x
a2fe   30 0a                bmi la30a
a300   a2 14      la300     ldx #$14
a302   20 db a3             jsr la3db
a305   20 bc 99             jsr l99bc
a308   18                   clc
a309   60                   rts
a30a   38         la30a     sec
a30b   a6 7e                ldx $7e
a30d   20 b1 96             jsr l96b1
a310   bd 83 10             lda $1083,x
a313   c9 c7                cmp #$c7
a315   d0 e9                bne la300
a317   a9 d0                lda #$d0
a319   9d 83 10             sta $1083,x
a31c   a6 7e                ldx $7e
a31e   20 00 97             jsr l9700
a321   a9 14                lda #$14
a323   20 ba 93             jsr l93ba
a326   20 30 4c             jsr $4c30
a329   38                   sec
a32a   60                   rts
a32b   a6 7d      la32b     ldx $7d
a32d   86 7e                stx $7e
a32f   8e 9c a3             stx $a39c
a332   a9 00                lda #$00
a334   8d 74 a3             sta $a374
a337   a6 7d                ldx $7d
a339   20 ed 47             jsr $47ed
a33c   c9 bc                cmp #$bc
a33e   f0 7c                beq la3bc
a340   c9 8f                cmp #$8f
a342   f0 78                beq la3bc
a344   a6 7e                ldx $7e
a346   bc 00 4a             ldy $4a00,x
a349   c0 f8                cpy #$f8
a34b   f0 07                beq la354
a34d   c9 04                cmp #$04
a34f   d0 03                bne la354
a351   98                   tya
a352   10 58                bpl la3ac
a354   a6 7e      la354     ldx $7e
a356   bd 00 4a             lda $4a00,x
a359   f0 50                beq la3ab
a35b   bd 20 40             lda $4020,x
a35e   29 20                and #$20
a360   d0 49                bne la3ab
a362   bd 40 4a             lda $4a40,x
a365   8d 82 a3             sta $a382
a368   bd 60 4a             lda $4a60,x
a36b   8d 89 a3             sta $a389
a36e   a9 1f                lda #$1f
a370   8d 74 a3             sta $a374
a373   a2 00      la373     ldx #$00
a375   bd 00 4a             lda $4a00,x
a378   29 fc                and #$fc
a37a   c9 e8                cmp #$e8
a37c   d0 1d                bne la39b
a37e   bd 40 4a             lda $4a40,x
a381   c9 00                cmp #$00
a383   d0 16                bne la39b
a385   bd 60 4a             lda $4a60,x
a388   c9 00                cmp #$00
a38a   d0 0f                bne la39b
a38c   bd 00 4a             lda $4a00,x
a38f   c9 e8                cmp #$e8
a391   f0 19                beq la3ac
a393   c9 e9                cmp #$e9
a395   f0 3c                beq la3d3
a397   c9 ea                cmp #$ea
a399   f0 21                beq la3bc
a39b   a2 00      la39b     ldx #$00
a39d   bd 20 40             lda $4020,x
a3a0   f0 09                beq la3ab
a3a2   29 20                and #$20
a3a4   d0 05                bne la3ab
a3a6   ce 74 a3             dec $a374
a3a9   10 c8                bpl la373
a3ab   60         la3ab     rts
a3ac   ae 9c a3   la3ac     ldx $a39c
a3af   bd 20 40             lda $4020,x
a3b2   0a                   asl a
a3b3   20 18 6c             jsr $6c18
a3b6   20 f8 a2             jsr la2f8
a3b9   4c 9b a3             jmp la39b
a3bc   a6 7e      la3bc     ldx $7e
a3be   bd 20 40             lda $4020,x
a3c1   0a                   asl a
a3c2   20 18 6c             jsr $6c18
a3c5   a2 0a                ldx #$0a
a3c7   20 db a3             jsr la3db
a3ca   20 bc 99             jsr l99bc
a3cd   20 e1 9f             jsr l9fe1
a3d0   4c 9b a3             jmp la39b
a3d3   a6 7e      la3d3     ldx $7e
a3d5   20 3d a2             jsr la23d
a3d8   4c 9b a3             jmp la39b
a3db   e0 63      la3db     cpx #$63
a3dd   f0 17                beq la3f6
a3df   8a                   txa
a3e0   f0 14                beq la3f6
a3e2   a8                   tay
a3e3   20 27 4c             jsr $4c27
a3e6   8d f0 a3             sta $a3f0
a3e9   a2 01                ldx #$01
a3eb   18         la3eb     clc
a3ec   88         la3ec     dey
a3ed   f0 07                beq la3f6
a3ef   69 00                adc #$00
a3f1   90 f9                bcc la3ec
a3f3   e8                   inx
a3f4   b0 f5                bcs la3eb
a3f6   60         la3f6     rts
a3f7   a6 7d      la3f7     ldx $7d
a3f9   bd 20 40             lda $4020,x
a3fc   10 2f                bpl la42d
a3fe   29 28                and #$28
a400   d0 2b                bne la42d
a402   20 d5 9f             jsr l9fd5
a405   aa                   tax
a406   a0 05                ldy #$05
a408   bd 90 11   la408     lda $1190,x
a40b   c9 2b                cmp #$2b
a40d   d0 17                bne la426
a40f   8e 25 a4             stx $a425
a412   a6 7d                ldx $7d
a414   a9 1d                lda #$1d
a416   9d 20 4a             sta $4a20,x
a419   9d 00 4a             sta $4a00,x
a41c   bd 20 40             lda $4020,x
a41f   09 10                ora #$10
a421   9d 20 40             sta $4020,x
a424   a2 ff                ldx #$ff
a426   e8         la426     inx
a427   88                   dey
a428   10 de                bpl la408
a42a   20 21 6c             jsr $6c21
a42d   60         la42d     rts
a42e   a6 7d      la42e     ldx $7d
a430   bd 20 40             lda $4020,x
a433   10 08                bpl la43d
a435   bd c0 4a             lda $4ac0,x
a438   20 90 4c             jsr $4c90
a43b   a6 7d                ldx $7d
a43d   60         la43d     rts
a43e   2c 50 43   la43e     bit $4350
a441   10 2f                bpl la472
a443   4e 50 43             lsr $4350
a446   a9 00                lda #$00
a448   20 54 4c             jsr $4c54
a44b   8d 5e a4             sta $a45e
a44e   a6 7d                ldx $7d
a450   bd 20 40             lda $4020,x
a453   10 1d                bpl la472
a455   20 b1 96             jsr l96b1
a458   bd 8d 10             lda $108d,x
a45b   18                   clc
a45c   f8                   sed
a45d   69 00                adc #$00
a45f   a8                   tay
a460   bd 8c 10             lda $108c,x
a463   69 00                adc #$00
a465   d8                   cld
a466   90 03                bcc la46b
a468   a9 99                lda #$99
a46a   a8                   tay
a46b   9d 8c 10   la46b     sta $108c,x
a46e   98                   tya
a46f   9d 8d 10             sta $108d,x
a472   60         la472     rts
a473   85 fd      la473     sta $fd
a475   86 fe                stx $fe
a477   84 ff                sty $ff
a479   a2 03                ldx #$03
a47b   a0 00                ldy #$00
a47d   b1 fc      la47d     lda ($fc),y
a47f   91 fe                sta ($fe),y
a481   c8                   iny
a482   d0 f9                bne la47d
a484   e6 fd                inc $fd
a486   e6 ff                inc $ff
a488   ca                   dex
a489   d0 f2                bne la47d
a48b   60                   rts
a48c   a5 21      la48c     lda $21
a48e   f0 0f                beq la49f
a490   c9 ff                cmp #$ff
a492   f0 0b                beq la49f
a494   c6 21                dec $21
a496   d0 07                bne la49f
a498   a9 00                lda #$00
a49a   85 20                sta $20
a49c   20 30 4c             jsr $4c30
a49f   60         la49f     rts
a4a0   a6 7d      la4a0     ldx $7d
a4a2   20 a9 97             jsr l97a9
a4a5   8d ac a4             sta $a4ac
a4a8   20 72 4c             jsr $4c72
a4ab   c9 00                cmp #$00
a4ad   90 01                bcc la4b0
a4af   60                   rts
a4b0   20 06 4c   la4b0     jsr $4c06
a4b3   a6 7d                ldx $7d
a4b5   20 00 97             jsr l9700
a4b8   a9 17                lda #$17
a4ba   20 ba 93             jsr l93ba
a4bd   a6 7d                ldx $7d
a4bf   bd 20 40             lda $4020,x
a4c2   29 fb                and #$fb
a4c4   9d 20 40             sta $4020,x
a4c7   bd 00 4a             lda $4a00,x
a4ca   9d 20 4a             sta $4a20,x
a4cd   60                   rts
a4ce   a4 7d      la4ce     ldy $7d
a4d0   be 40 41             ldx $4140,y
a4d3   30 2d                bmi la502
a4d5   20 0c 94             jsr l940c
a4d8   90 28                bcc la502
a4da   bd 20 40             lda $4020,x
a4dd   29 0c                and #$0c
a4df   d0 21                bne la502
a4e1   a5 20                lda $20
a4e3   c9 d4                cmp #$d4
a4e5   f0 1b                beq la502
a4e7   20 fd 94             jsr l94fd
a4ea   ca                   dex
a4eb   d0 15                bne la502
a4ed   be 40 41             ldx $4140,y
a4f0   20 06 4c             jsr $4c06
a4f3   20 00 97             jsr l9700
a4f6   a9 1a                lda #$1a
a4f8   20 ba 93             jsr l93ba
a4fb   a9 08                lda #$08
a4fd   20 4b 4c             jsr $4c4b
a500   38                   sec
a501   60                   rts
a502   18         la502     clc
a503   60                   rts
a504   a9 1f      la504     lda #$1f
a506   85 7e                sta $7e
a508   8d 46 a5             sta $a546
a50b   a6 7e      la50b     ldx $7e
a50d   bd 20 40             lda $4020,x
a510   29 a1                and #$a1
a512   c9 81                cmp #$81
a514   d0 2b                bne la541
a516   8d 46 a5             sta $a546
a519   bd 20 40             lda $4020,x
a51c   29 fe                and #$fe
a51e   9d 20 40             sta $4020,x
a521   20 06 4c             jsr $4c06
a524   20 00 97             jsr l9700
a527   a9 1b                lda #$1b
a529   20 ba 93             jsr l93ba
a52c   a2 c0                ldx #$c0
a52e   a0 30                ldy #$30
a530   a9 02                lda #$02
a532   20 4b 4c             jsr $4c4b
a535   a6 7e                ldx $7e
a537   a0 23                ldy #$23
a539   20 e8 98             jsr l98e8
a53c   a6 7e                ldx $7e
a53e   20 3d a2             jsr la23d
a541   c6 7e      la541     dec $7e
a543   10 c6                bpl la50b
a545   a9 00                lda #$00
a547   60                   rts
a548   10 15                bpl la55f
a54a   16 2c                asl $2c,x
a54c   51 43                eor ($43),y
a54e   30 2a                bmi la57a
a550   a9 00                lda #$00
a552   8d b6 a5             sta $a5b6
a555   a5 7f                lda $7f
a557   c9 1a                cmp #$1a
a559   f0 20                beq la57b
a55b   c9 24                cmp #$24
a55d   f0 1c                beq la57b
a55f   c9 1c      la55f     cmp #$1c
a561   f0 1b                beq la57e
a563   a6 7d                ldx $7d
a565   a4 7e                ldy $7e
a567   20 fd 94             jsr l94fd
a56a   8a                   txa
a56b   ca                   dex
a56c   f0 0c                beq la57a
a56e   a5 7f                lda $7f
a570   a2 02                ldx #$02
a572   dd 48 a5   la572     cmp $a548,x
a575   f0 45                beq la5bc
a577   ca                   dex
a578   10 f8                bpl la572
a57a   60         la57a     rts
a57b   a0 1b      la57b     ldy #$1b
a57d   2c a0 1d             bit $1da0
a580   b9 00 12             lda $1200,y
a583   f8                   sed
a584   38                   sec
a585   e9 01                sbc #$01
a587   99 00 12             sta $1200,y
a58a   d8                   cld
a58b   f0 01                beq la58e
a58d   60                   rts
a58e   a2 05      la58e     ldx #$05
a590   8a         la590     txa
a591   0a                   asl a
a592   0a                   asl a
a593   0a                   asl a
a594   0a                   asl a
a595   a8                   tay
a596   b9 80 10             lda $1080,y
a599   d0 10                bne la5ab
a59b   8a                   txa
a59c   8d a2 a5             sta $a5a2
a59f   0a                   asl a
a5a0   0a                   asl a
a5a1   69 00                adc #$00
a5a3   6d a2 a5             adc $a5a2
a5a6   a4 7f                ldy $7f
a5a8   20 eb 98             jsr l98eb
a5ab   ca         la5ab     dex
a5ac   10 e2                bpl la590
a5ae   a6 7f                ldx $7f
a5b0   bd 00 12             lda $1200,x
a5b3   18                   clc
a5b4   f8                   sed
a5b5   69 00                adc #$00
a5b7   9d 00 12             sta $1200,x
a5ba   d8                   cld
a5bb   60                   rts
a5bc   a8         la5bc     tay
a5bd   b9 00 12             lda $1200,y
a5c0   f0 09                beq la5cb
a5c2   38                   sec
a5c3   f8                   sed
a5c4   e9 01                sbc #$01
a5c6   99 00 12             sta $1200,y
a5c9   d8                   cld
a5ca   60                   rts
a5cb   a6 7d      la5cb     ldx $7d
a5cd   a4 7f                ldy $7f
a5cf   4c e8 98             jmp l98e8
a5d2   bc 00 4a   la5d2     ldy $4a00,x
a5d5   88                   dey
a5d6   d0 10                bne la5e8
a5d8   a5 09                lda $09
a5da   0a                   asl a
a5db   0a                   asl a
a5dc   38                   sec
a5dd   e5 09                sbc $09
a5df   18                   clc
a5e0   69 07                adc #$07
a5e2   20 54 4c             jsr $4c54
a5e5   4c 25 a6             jmp la625
a5e8   88         la5e8     dey
a5e9   d0 1a                bne la605
a5eb   a5 09                lda $09
a5ed   0a                   asl a
a5ee   0a                   asl a
a5ef   0a                   asl a
a5f0   65 09                adc $09
a5f2   65 09                adc $09
a5f4   69 0a                adc #$0a
a5f6   8e 02 a6             stx $a602
a5f9   aa                   tax
a5fa   20 db a3             jsr la3db
a5fd   8a                   txa
a5fe   20 54 4c             jsr $4c54
a601   a2 00                ldx #$00
a603   10 20                bpl la625
a605   88         la605     dey
a606   a9 01                lda #$01
a608   c0 0d                cpy #$0d
a60a   b0 19                bcs la625
a60c   8a                   txa
a60d   48                   pha
a60e   b9 79 47             lda $4779,y
a611   8d 24 a6             sta $a624
a614   be 86 47             ldx $4786,y
a617   20 db a3             jsr la3db
a61a   ca                   dex
a61b   8e 21 a6             stx $a621
a61e   68                   pla
a61f   aa                   tax
a620   a9 00                lda #$00
a622   18                   clc
a623   69 00                adc #$00
a625   9d c0 4a   la625     sta $4ac0,x
a628   60                   rts
a629   a9 53      la629     lda #$53
a62b   4c 86 1d             jmp $1d86
a62e   a4 7d      la62e     ldy $7d
a630   b9 20 40             lda $4020,y
a633   f0 1b                beq la650
a635   29 20                and #$20
a637   d0 17                bne la650
a639   be 60 4a             ldx $4a60,y
a63c   ca                   dex
a63d   30 11                bmi la650
a63f   b9 40 4a             lda $4a40,y
a642   18                   clc
a643   7d 42 47             adc $4742,x
a646   aa                   tax
a647   bd 00 49             lda $4900,x
a64a   29 fc                and #$fc
a64c   c9 3c                cmp #$3c
a64e   f0 01                beq la651
a650   60         la650     rts
a651   a9 cd      la651     lda #$cd
a653   8d 55 43             sta $4355
a656   20 06 4c             jsr $4c06
a659   a6 7d                ldx $7d
a65b   20 00 97             jsr l9700
a65e   a9 1d                lda #$1d
a660   20 ba 93             jsr l93ba
a663   4c 8d 89             jmp l898d
a666   20 00 4c   la666     jsr $4c00
a669   ce ef a0             dec $a0ef
a66c   e5 e6                sbc $e6
a66e   e6 e5                inc $e5
a670   e3                   ???                ;%11100011
a671   f4                   ???                ;%11110100
a672   a1 00                lda ($00,x)
a674   60                   rts
a675   20 00 4c   la675     jsr $4c00
a678   c1 f4                cmp ($f4,x)
a67a   f4                   ???                ;%11110100
a67b   e1 e3                sbc ($e3,x)
a67d   eb                   ???                ;%11101011
a67e   ad 00 60             lda $6000
a681   20 00 4c   la681     jsr $4c00
a684   ce ef f4             dec $f4ef
a687   e8                   inx
a688   e9 ee                sbc #$ee
a68a   e7                   ???                ;%11100111
a68b   00                   brk
a68c   60                   rts
a68d   20 00 4c   la68d     jsr $4c00
a690   da                   ???                ;%11011010
a691   fa                   ???                ;%11111010
a692   fa                   ???                ;%11111010
a693   fa                   ???                ;%11111010
a694   fa                   ???                ;%11111010
a695   fa                   ???                ;%11111010
a696   ae ae ae             ldx $aeae
a699   8d 00 60             sta $6000
a69c   20 00 4c   la69c     jsr $4c00
a69f   c1 e9                cmp ($e9,x)
a6a1   ed a1 a0             sbc la0a1
a6a4   00                   brk
a6a5   60                   rts
a6a6   00                   brk
a6a7   00                   brk
a6a8   00                   brk
a6a9   00                   brk
a6aa   00                   brk
a6ab   00                   brk
a6ac   00                   brk
a6ad   00                   brk
a6ae   00                   brk
a6af   00                   brk
a6b0   00                   brk
a6b1   00                   brk
a6b2   00                   brk
a6b3   00                   brk
a6b4   00                   brk
a6b5   00                   brk
a6b6   00                   brk
a6b7   00                   brk
a6b8   00                   brk
a6b9   00                   brk
a6ba   00                   brk
a6bb   00                   brk
a6bc   00                   brk
a6bd   00                   brk
a6be   00                   brk
a6bf   00                   brk
a6c0   00                   brk
a6c1   00                   brk
a6c2   00                   brk
a6c3   00                   brk
a6c4   00                   brk
a6c5   00                   brk
a6c6   00                   brk
a6c7   00         la6c7     brk
a6c8   00         la6c8     brk
a6c9   00                   brk
a6ca   00                   brk
a6cb   00                   brk
a6cc   00                   brk
a6cd   00                   brk
a6ce   00                   brk
a6cf   00                   brk
a6d0   00                   brk
a6d1   00                   brk
a6d2   00                   brk
a6d3   00                   brk
a6d4   00                   brk
a6d5   00                   brk
a6d6   00                   brk
a6d7   00                   brk
a6d8   00                   brk
a6d9   00                   brk
a6da   00                   brk
a6db   00                   brk
a6dc   00                   brk
a6dd   00                   brk
a6de   00                   brk
a6df   00                   brk
a6e0   00                   brk
a6e1   00                   brk
a6e2   00                   brk
a6e3   00                   brk
a6e4   00                   brk
a6e5   00                   brk
a6e6   00                   brk
a6e7   00                   brk
a6e8   00                   brk
a6e9   00                   brk
a6ea   00                   brk
a6eb   00                   brk
a6ec   00                   brk
a6ed   00                   brk
a6ee   00                   brk
a6ef   00                   brk
a6f0   00                   brk
a6f1   00                   brk
a6f2   00                   brk
a6f3   00                   brk
a6f4   00                   brk
a6f5   00                   brk
a6f6   00                   brk
a6f7   00                   brk
a6f8   00                   brk
a6f9   00                   brk
a6fa   00                   brk
a6fb   00                   brk
a6fc   00                   brk
a6fd   00                   brk
a6fe   00                   brk
a6ff   00                   brk
a700   37         la700     ???                ;%00110111 '7'
a701   03                   ???                ;%00000011
a702   01 01                ora ($01,x)
a704   01 01                ora ($01,x)
a706   01 01      la706     ora ($01,x)
a708   01 01                ora ($01,x)
a70a   01 01                ora ($01,x)
a70c   1f         la70c     ???                ;%00011111
a70d   39 29 39             and $3929,y
a710   35 37                and $37,x
a712   29 01                and #$01
a714   01 01                ora ($01,x)
a716   01 01                ora ($01,x)
a718   01 01                ora ($01,x)
a71a   42                   ???                ;%01000010 'B'
a71b   39 55 01             and $0155,y
a71e   69 01                adc #$01
a720   01 01                ora ($01,x)
a722   43                   ???                ;%01000011 'C'
a723   65 01                adc $01
a725   01 29                ora ($29,x)
a727   29 01                and #$01
a729   15 01                ora $01,x
a72b   01 01                ora ($01,x)
a72d   01 01                ora ($01,x)
a72f   29 e4                and #$e4
a731   90 94                bcc la6c7
a733   98                   tya
a734   a0 a4                ldy #$a4
a736   d0 90                bne la6c8
a738   80                   ???                ;%10000000
a739   00                   brk
a73a   40                   rti
a73b   00                   brk
a73c   00                   brk
a73d   00                   brk
a73e   00                   brk
a73f   00                   brk
a740   00                   brk
a741   00                   brk
a742   00                   brk
a743   00                   brk
a744   00                   brk
a745   00                   brk
a746   00                   brk
a747   00                   brk
a748   00                   brk
a749   00                   brk
a74a   00                   brk
a74b   00                   brk
a74c   00                   brk
a74d   00                   brk
a74e   00                   brk
a74f   00                   brk
a750   00                   brk
a751   00                   brk
a752   b0 08                bcs la75c
a754   bc 48 b0             ldy $b048,x
a757   08                   php
a758   c0 01                cpy #$01
a75a   40                   rti
a75b   05 40                ora $40
a75d   01 00                ora ($00,x)
a75f   01 03                ora ($03,x)
a761   00                   brk
a762   00                   brk
a763   01 02                ora ($02,x)
a765   04                   ???                ;%00000100
a766   08                   php
a767   21 00                and ($00,x)
a769   11 00                ora ($00),y
a76b   02                   ???                ;%00000010
a76c   02                   ???                ;%00000010
a76d   80                   ???                ;%10000000
a76e   80                   ???                ;%10000000
a76f   80                   ???                ;%10000000
a770   80                   ???                ;%10000000
a771   40                   rti
a772   00                   brk
a773   00                   brk
a774   00                   brk
a775   90 00                bcc la777
a777   01 00      la777     ora ($00,x)
a779   80                   ???                ;%10000000
a77a   00                   brk
a77b   20 00 04             jsr $0400
a77e   40                   rti
a77f   80                   ???                ;%10000000
a780   00                   brk
a781   80                   ???                ;%10000000
a782   20 41 84             jsr l8441
a785   61 04                adc ($04,x)
a787   00         la787     brk
a788   00                   brk
a789   00                   brk
a78a   40                   rti
a78b   00                   brk
a78c   00                   brk
a78d   00                   brk
a78e   00                   brk
a78f   00                   brk
a790   00                   brk
a791   00                   brk
a792   00                   brk
a793   00                   brk
a794   03         la794     ???                ;%00000011
a795   00                   brk
a796   bb                   ???                ;%10111011
a797   61 20                adc ($20,x)
a799   20 20 d3             jsr $d320
a79c   f0 e9                beq la787
a79e   eb                   ???                ;%11101011
a79f   e5 e4                sbc $e4
a7a1   a0 c8                ldy #$c8
a7a3   e5 ec                sbc $ec
a7a5   6d 20 20             adc $2020
a7a8   d3                   ???                ;%11010011
a7a9   f0 e9                beq la794
a7ab   eb                   ???                ;%11101011
a7ac   e5 e4                sbc $e4
a7ae   a0 d3                ldy #$d3
a7b0   e8                   inx
a7b1   e9 e5                sbc #$e5
a7b3   ec 64 20             cpx $2064
a7b6   20 20 20             jsr $2020
a7b9   20 20 20             jsr $2020
a7bc   20 20 c4             jsr $c420
a7bf   e1 e7                sbc ($e7,x)
a7c1   e7                   ???                ;%11100111
a7c2   e5 72                sbc $72
a7c4   d3                   ???                ;%11010011
a7c5   ec e9 ee             cpx $eee9
a7c8   67                   ???                ;%01100111 'g'
a7c9   c3                   ???                ;%11000011
a7ca   ec f5 62             cpx $62f5
a7cd   c6 ec                dec $ec
a7cf   e1 ed                sbc ($ed,x)
a7d1   e9 ee                sbc #$ee
a7d3   e7                   ???                ;%11100111
a7d4   a0 cf                ldy #$cf
a7d6   e9 6c                sbc #$6c
a7d8   cd e1 e9             cmp $e9e1
a7db   ee a0 c7             inc $c7a0
a7de   e1 f5                sbc ($f5,x)
a7e0   e3                   ???                ;%11100011
a7e1   e8                   inx
a7e2   65 d3                adc $d3
a7e4   f0 e5                beq la7cb
a7e6   e1 72                sbc ($72,x)
a7e8   d4                   ???                ;%11010100
a7e9   e8                   inx
a7ea   f2                   ???                ;%11110010
a7eb   ef                   ???                ;%11101111
a7ec   f7                   ???                ;%11110111
a7ed   e9 ee                sbc #$ee
a7ef   e7                   ???                ;%11100111
a7f0   a0 c1                ldy #$c1
a7f2   f8                   sed
a7f3   65 d3                adc $d3
a7f5   e8                   inx
a7f6   ef                   ???                ;%11101111
a7f7   f2                   ???                ;%11110010
a7f8   f4                   ???                ;%11110100
a7f9   a0 d3                ldy #$d3
a7fb   f7                   ???                ;%11110111
a7fc   ef                   ???                ;%11101111
a7fd   f2                   ???                ;%11110010
a7fe   64                   ???                ;%01100100 'd'
a7ff   cd e1 e3             cmp $e3e1
a802   65 cd                adc $cd
a804   ef                   ???                ;%11101111
a805   f2                   ???                ;%11110010
a806   ee e9 ee             inc $eee9
a809   e7                   ???                ;%11100111
a80a   a0 d3                ldy #$d3
a80c   f4                   ???                ;%11110100
a80d   e1 72                sbc ($72,x)
a80f   c2                   ???                ;%11000010
a810   ef                   ???                ;%11101111
a811   77                   ???                ;%01110111 'w'
a812   c1 f2                cmp ($f2,x)
a814   f2                   ???                ;%11110010
a815   ef                   ???                ;%11101111
a816   f7                   ???                ;%11110111
a817   73                   ???                ;%01110011 's'
a818   c3                   ???                ;%11000011
a819   f2                   ???                ;%11110010
a81a   ef                   ???                ;%11101111
a81b   f3                   ???                ;%11110011
a81c   f3                   ???                ;%11110011
a81d   e2                   ???                ;%11100010
a81e   ef                   ???                ;%11101111
a81f   77                   ???                ;%01110111 'w'
a820   d1 f5                cmp ($f5),y
a822   e1 f2                sbc ($f2,x)
a824   f2                   ???                ;%11110010
a825   e5 ec                sbc $ec
a827   73                   ???                ;%01110011 's'
a828   cc ef ee             cpy $eeef
a82b   e7                   ???                ;%11100111
a82c   a0 d3                ldy #$d3
a82e   f7                   ???                ;%11110111
a82f   ef                   ???                ;%11101111
a830   f2                   ???                ;%11110010
a831   64                   ???                ;%01100100 'd'
a832   b2                   ???                ;%10110010
a833   c8                   iny
a834   a0 c8                ldy #$c8
a836   e1 ed                sbc ($ed,x)
a838   ed e5 72             sbc $72e5
a83b   b2                   ???                ;%10110010
a83c   c8                   iny
a83d   a0 c1                ldy #$c1
a83f   f8                   sed
a840   65 b2                adc $b2
a842   c8                   iny
a843   a0 d3                ldy #$d3
a845   f7                   ???                ;%11110111
a846   ef                   ???                ;%11101111
a847   f2                   ???                ;%11110010
a848   64                   ???                ;%01100100 'd'
a849   c8                   iny
a84a   e1 ec                sbc ($ec,x)
a84c   e2                   ???                ;%11100010
a84d   e5 f2                sbc $f2
a84f   64                   ???                ;%01100100 'd'
a850   d3                   ???                ;%11010011
a851   f7                   ???                ;%11110111
a852   ef                   ???                ;%11101111
a853   f2                   ???                ;%11110010
a854   e4 a0                cpx $a0
a856   ef                   ???                ;%11101111
a857   e6 a0                inc $a0
a859   c3                   ???                ;%11000011
a85a   e8                   inx
a85b   e1 ef                sbc ($ef,x)
a85d   73                   ???                ;%01110011 's'
a85e   cd e1 e7             cmp $e7e1
a861   e9 e3                sbc #$e3
a863   a0 c2                ldy #$c2
a865   ef                   ???                ;%11101111
a866   77                   ???                ;%01110111 'w'
a867   d3                   ???                ;%11010011
a868   e9 ec                sbc #$ec
a86a   f6 e5                inc $e5,x
a86c   f2                   ???                ;%11110010
a86d   a0 d3                ldy #$d3
a86f   f7                   ???                ;%11110111
a870   ef                   ???                ;%11101111
a871   f2                   ???                ;%11110010
a872   64                   ???                ;%01100100 'd'
a873   cd e1 e7             cmp $e7e1
a876   e9 e3                sbc #$e3
a878   a0 c1                ldy #$c1
a87a   f8                   sed
a87b   65 c7                adc $c7
a87d   ec e1 f3             cpx $f3e1
a880   f3                   ???                ;%11110011
a881   a0 d3                ldy #$d3
a883   f7                   ???                ;%11110111
a884   ef                   ???                ;%11101111
a885   f2                   ???                ;%11110010
a886   64                   ???                ;%01100100 'd'
a887   ca                   dex
a888   e5 f7                sbc $f7
a88a   e5 ec                sbc $ec
a88c   e5 e4                sbc $e4
a88e   a0 d3                ldy #$d3
a890   f7                   ???                ;%11110111
a891   ef                   ???                ;%11101111
a892   f2                   ???                ;%11110010
a893   64                   ???                ;%01100100 'd'
a894   cd f9 f3             cmp $f3f9
a897   f4                   ???                ;%11110100
a898   e9 e3                sbc #$e3
a89a   a0 d3                ldy #$d3
a89c   f7                   ???                ;%11110111
a89d   ef                   ???                ;%11101111
a89e   f2                   ???                ;%11110010
a89f   64                   ???                ;%01100100 'd'
a8a0   00                   brk
a8a1   00                   brk
a8a2   00                   brk
a8a3   04                   ???                ;%00000100
a8a4   00                   brk
a8a5   00                   brk
a8a6   06 00                asl $00
a8a8   00                   brk
a8a9   00                   brk
a8aa   00                   brk
a8ab   00                   brk
a8ac   00                   brk
a8ad   00                   brk
a8ae   00                   brk
a8af   00                   brk
a8b0   06 06                asl $06
a8b2   08                   php
a8b3   08                   php
a8b4   08                   php
a8b5   0a                   asl a
a8b6   0a                   asl a
a8b7   0c                   ???                ;%00001100
a8b8   0f                   ???                ;%00001111
a8b9   0f                   ???                ;%00001111
a8ba   0a                   asl a
a8bb   01 0c                ora ($0c,x)
a8bd   01 0f                ora ($0f,x)
a8bf   14                   ???                ;%00010100
a8c0   14                   ???                ;%00010100
a8c1   14                   ???                ;%00010100
a8c2   1e 63 0f             asl $0f63,x
a8c5   0c                   ???                ;%00001100
a8c6   14                   ???                ;%00010100
a8c7   63                   ???                ;%01100011 'c'
a8c8   01 1e                ora ($1e,x)
a8ca   00                   brk
a8cb   00                   brk
a8cc   00                   brk
a8cd   00                   brk
a8ce   00                   brk
a8cf   00                   brk
a8d0   10 1e                bpl la8f0
a8d2   63                   ???                ;%01100011 'c'
a8d3   12                   ???                ;%00010010
a8d4   00                   brk
a8d5   15 00                ora $00,x
a8d7   01 02                ora ($02,x)
a8d9   03                   ???                ;%00000011
a8da   03                   ???                ;%00000011
a8db   02                   ???                ;%00000010
a8dc   03                   ???                ;%00000011
a8dd   03                   ???                ;%00000011
a8de   05 00                ora $00
a8e0   01 02      la8e0     ora ($02,x)
a8e2   03         la8e2     ???                ;%00000011
a8e3   04                   ???                ;%00000100
a8e4   05 07                ora $07
a8e6   0a                   asl a
a8e7   00                   brk
a8e8   00                   brk
a8e9   00                   brk
a8ea   00                   brk
a8eb   01 00                ora ($00,x)
a8ed   00                   brk
a8ee   00                   brk
a8ef   00                   brk
a8f0   00         la8f0     brk
a8f1   00                   brk
a8f2   00                   brk
a8f3   00                   brk
a8f4   00                   brk
a8f5   00                   brk
a8f6   00                   brk
a8f7   00                   brk
a8f8   00                   brk
a8f9   00                   brk
a8fa   00                   brk
a8fb   00                   brk
a8fc   00                   brk
a8fd   00                   brk
a8fe   00                   brk
a8ff   00                   brk
a900   01 00                ora ($00,x)
a902   02                   ???                ;%00000010
a903   00                   brk
a904   00                   brk
a905   02                   ???                ;%00000010
a906   00                   brk
a907   00                   brk
a908   00                   brk
a909   00                   brk
a90a   80                   ???                ;%10000000
a90b   00                   brk
a90c   00                   brk
a90d   80                   ???                ;%10000000
a90e   00                   brk
a90f   00                   brk
a910   00                   brk
a911   00                   brk
a912   00                   brk
a913   00                   brk
a914   00                   brk
a915   00                   brk
a916   00                   brk
a917   03                   ???                ;%00000011
a918   64                   ???                ;%01100100 'd'
a919   80                   ???                ;%10000000
a91a   24 00                bit $00
a91c   05 14                ora $14
a91e   00                   brk
a91f   80                   ???                ;%10000000
a920   02                   ???                ;%00000010
a921   07                   ???                ;%00000111
a922   00                   brk
a923   08                   php
a924   00                   brk
a925   00                   brk
a926   80                   ???                ;%10000000
a927   00                   brk
a928   00                   brk
a929   02                   ???                ;%00000010
a92a   00                   brk
a92b   0f                   ???                ;%00001111
a92c   00                   brk
a92d   1f                   ???                ;%00011111
a92e   00                   brk
a92f   00                   brk
a930   00                   brk
a931   00                   brk
a932   00                   brk
a933   00                   brk
a934   00                   brk
a935   00                   brk
a936   00                   brk
a937   3f                   ???                ;%00111111 '?'
a938   2f                   ???                ;%00101111 '/'
a939   3f                   ???                ;%00111111 '?'
a93a   4f                   ???                ;%01001111 'O'
a93b   5f                   ???                ;%01011111 '_'
a93c   2f                   ???                ;%00101111 '/'
a93d   3f                   ???                ;%00111111 '?'
a93e   00                   brk
a93f   05 05      la93f     ora $05
a941   45 00                eor $00
a943   0b                   ???                ;%00001011
a944   16 21                asl $21,x
a946   2c 37 42             bit $4237
a949   4d 58 63             eor $6358
a94c   6e 00 01             ror $0100
a94f   02                   ???                ;%00000010
a950   03                   ???                ;%00000011
a951   04                   ???                ;%00000100
a952   05 06                ora $06
a954   07                   ???                ;%00000111
a955   08                   php
a956   09 0a                ora #$0a
a958   0b                   ???                ;%00001011
a959   0c                   ???                ;%00001100
a95a   0d 0e 0f             ora $0f0e
a95d   80                   ???                ;%10000000
a95e   10 80                bpl la8e0
a960   10 80                bpl la8e2
a962   10 60                bpl la9c4
a964   40                   rti
a965   00                   brk
a966   cd c2 c6             cmp $c6c2
a969   c4 d4                cpy $d4
a96b   d0 d2                bne la93f
a96d   d3                   ???                ;%11010011
a96e   c1 40                cmp ($40,x)
a970   44                   ???                ;%01000100 'D'
a971   48                   pha
a972   4c 4c 4c             jmp $4c4c
a975   4c 4c 4c   la975     jmp $4c4c
a978   00                   brk
a979   00                   brk
a97a   00                   brk
a97b   1e 04 01             asl $0104,x
a97e   01 00                ora ($00,x)
a980   2a                   rol a
a981   09 2d                ora #$2d
a983   01 01                ora ($01,x)
a985   01 08                ora ($08,x)
a987   08                   php
a988   04                   ???                ;%00000100
a989   03                   ???                ;%00000011
a98a   08                   php
a98b   08                   php
a98c   04                   ???                ;%00000100
a98d   03                   ???                ;%00000011
a98e   06 03                asl $03
a990   08                   php
a991   01 08                ora ($08,x)
a993   85 a0                sta $a0
a995   c1 d2                cmp ($d2,x)
a997   da                   ???                ;%11011010
a998   c3                   ???                ;%11000011
a999   d3                   ???                ;%11010011
a99a   cf                   ???                ;%11001111
a99b   c7                   ???                ;%11000111
a99c   ca                   dex
a99d   cb                   ???                ;%11001011
a99e   d0 d5                bne la975
a9a0   d9 b0 b1             cmp $b1b0,y
a9a3   b2                   ???                ;%10110010
a9a4   b3                   ???                ;%10110011
a9a5   b4 b5                ldy $b5,x
a9a7   b6 13                ldx $13,y
a9a9   16 c2                asl $c2,x
a9ab   c5 c6                cmp $c6
a9ad   c8                   iny
a9ae   c9 cc                cmp #$cc
a9b0   cd ce d1             cmp $d1ce
a9b3   d4                   ???                ;%11010100
a9b4   d6 d7                dec $d7,x
a9b6   d8                   cld
a9b7   c4 be                cpy $be
a9b9   89                   ???                ;%10001001
a9ba   c3                   ???                ;%11000011
a9bb   8f                   ???                ;%10001111
a9bc   15 8a                ora $8a,x
a9be   69 8e                adc #$8e
a9c0   c6 8e                dec $8e
a9c2   fe 8b 81             inc $818b,x
a9c5   8e fc 8d             stx $8dfc
a9c8   51 8c                eor ($8c),y
a9ca   a7                   ???                ;%10100111
a9cb   8c 5d 8d             sty $8d5d
a9ce   99 8b bf             sta $bf8b,y
a9d1   8b                   ???                ;%10001011
a9d2   e3                   ???                ;%11100011
a9d3   8b                   ???                ;%10001011
a9d4   14                   ???                ;%00010100
a9d5   8f                   ???                ;%10001111
a9d6   3d 8f 3d             and $3d8f,x
a9d9   8f                   ???                ;%10001111
a9da   3d 8f 3d             and $3d8f,x
a9dd   8f                   ???                ;%10001111
a9de   3d 8f 3d             and $3d8f,x
a9e1   8f                   ???                ;%10001111
a9e2   e9 8e                sbc #$8e
a9e4   e3                   ???                ;%11100011
a9e5   8e 

a9e6   a5 c8                lda $c8
a9e8   10 11                bpl la9fb          ; branch if c64
a9ea   4c 09 77             jmp $7709          ; subs.128
a9ed   bc 60 4a             ldy $4a60,x
a9f0   bd 40 4a             lda $4a40,x
a9f3   18                   clc
a9f4   79 42 47             adc $4742,y
a9f7   a8                   tay
a9f8   b9 00 44             lda $4400,y
a9fb   60         la9fb     rts

a9fc   10 15                bpl laa13
a9fe   20 00 15             jsr $1500
aa01   10 03                bpl laa06
aa03   20 15 20             jsr $2015
aa06   10 04      laa06     bpl laa0c
aa08   12                   ???                ;%00010010
aa09   15 09                ora $09,x
aa0b   10 20      laa0b     bpl laa2d
aa0d   15 10                ora $10,x
aa0f   08                   php
aa10   15 20                ora $20,x
aa12   06 15                asl $15
aa14   25 25                and $25
aa16   25 07                and $07
aa18   30 20                bmi laa3a
aa1a   01 25                ora ($25,x)
aa1c   12                   ???                ;%00010010
aa1d   12                   ???                ;%00010010
aa1e   12                   ???                ;%00010010
aa1f   00                   brk
aa20   06 08                asl $08
aa22   01 10                ora ($10,x)
aa24   12                   ???                ;%00010010
aa25   12                   ???                ;%00010010
aa26   18                   clc
aa27   00                   brk
aa28   06 08                asl $08
aa2a   01 10                ora ($10,x)
aa2c   12                   ???                ;%00010010
aa2d   18         laa2d     clc
aa2e   12                   ???                ;%00010010
aa2f   00                   brk
aa30   06 08                asl $08
aa32   01 10                ora ($10,x)
aa34   12                   ???                ;%00010010
aa35   16 14                asl $14,x
aa37   00                   brk
aa38   06 08                asl $08
aa3a   01 10      laa3a     ora ($10,x)
aa3c   12                   ???                ;%00010010
aa3d   12                   ???                ;%00010010
aa3e   12                   ???                ;%00010010
aa3f   00                   brk
aa40   00                   brk
aa41   05 01                ora $01
aa43   00                   brk
aa44   12                   ???                ;%00010010
aa45   12                   ???                ;%00010010
aa46   12                   ???                ;%00010010
aa47   00                   brk
aa48   00                   brk
aa49   05 01                ora $01
aa4b   00                   brk
aa4c   08                   php
aa4d   08                   php
aa4e   08                   php
aa4f   00                   brk
aa50   00                   brk
aa51   05 01                ora $01
aa53   00                   brk
aa54   08                   php
aa55   08                   php
aa56   08                   php
aa57   00                   brk
aa58   00                   brk
aa59   05 01                ora $01
aa5b   00                   brk
aa5c   22                   ???                ;%00100010 '"'
aa5d   30 10                bmi laa6f
aa5f   06 30                asl $30
aa61   99 08 05             sta $0508,y
aa64   30 30                bmi laa96
aa66   30 30                bmi laa98
aa68   99 99 01             sta $0199,y
aa6b   00                   brk
aa6c   30 30                bmi laa9e
aa6e   30 30                bmi laaa0
aa70   30 99                bmi laa0b
aa72   01 00                ora ($00,x)
aa74   30 30                bmi laaa6
aa76   30 30                bmi laaa8
aa78   99 99 01             sta $0199,y
aa7b   00                   brk
aa7c   17                   ???                ;%00010111
aa7d   20 20 02             jsr $0220
aa80   10 30                bpl laab2
aa82   03                   ???                ;%00000011
aa83   00                   brk
aa84   24 20                bit $20
aa86   08                   php
aa87   00                   brk
aa88   20 50 02             jsr $0250
aa8b   00                   brk
aa8c   17                   ???                ;%00010111
aa8d   17                   ???                ;%00010111
aa8e   08                   php
aa8f   02                   ???                ;%00000010
aa90   30 70                bmi lab02
aa92   01 00                ora ($00,x)
aa94   20 17 05             jsr $0517
aa97   00                   brk
aa98   08         laa98     php
aa99   22                   ???                ;%00100010 '"'
aa9a   10 00                bpl laa9c
aa9c   05 20      laa9c     ora $20
aa9e   05 00      laa9e     ora $00
aaa0   06 10      laaa0     asl $10
aaa2   10 05                bpl laaa9
aaa4   05 30                ora $30
aaa6   05 00      laaa6     ora $00
aaa8   06 05      laaa8     asl $05
aaaa   16 00                asl $00,x
aaac   10 10                bpl laabe
aaae   05 00                ora $00
aab0   08                   php
aab1   10 04                bpl laab7
aab3   05 01                ora $01
aab5   20 10 00             jsr $0010
aab8   12                   ???                ;%00010010
aab9   20 06 00             jsr $0006
aabc   06 06                asl $06
aabe   02         laabe     ???                ;%00000010
aabf   00                   brk
aac0   04                   ???                ;%00000100
aac1   10 16                bpl laad9
aac3   00                   brk
aac4   10 21                bpl laae7
aac6   10 02                bpl laaca
aac8   04                   ???                ;%00000100
aac9   10 13                bpl laade
aacb   12                   ???                ;%00010010
aacc   20 30 12             jsr $1230
aacf   08                   php
aad0   15 30                ora $30,x
aad2   01 20                ora ($20,x)
aad4   20 25 12             jsr $1225
aad7   04                   ???                ;%00000100
aad8   20 40 03             jsr $0340
aadb   25 08                and $08
aadd   10 25                bpl lab04
aadf   00                   brk
aae0   10 20                bpl lab02
aae2   04                   ???                ;%00000100
aae3   00                   brk
aae4   17                   ???                ;%00010111
aae5   15 12                ora $12,x
aae7   00         laae7     brk
aae8   15 35                ora $35,x
aaea   04                   ???                ;%00000100
aaeb   00                   brk
aaec   20 10 05             jsr $0510
aaef   15 20                ora $20,x
aaf1   40                   rti
aaf2   01 00                ora ($00,x)
aaf4   01 30                ora ($30,x)
aaf6   01 00                ora ($00,x)
aaf8   04                   ???                ;%00000100
aaf9   05 10                ora $10
aafb   00                   brk
aafc   15 13                ora $13,x
aafe   10 02                bpl lab02
ab00   12                   ???                ;%00010010
ab01   10 10                bpl lab13
ab03   11 10                ora ($10),y
ab05   20 05 00             jsr $0005
ab08   12                   ???                ;%00010010
ab09   20 08 13             jsr $1308
ab0c   05 18                ora $18
ab0e   08                   php
ab0f   01 08                ora ($08,x)
ab11   10 04                bpl lab17
ab13   00         lab13     brk
ab14   20 15 12             jsr $1215
ab17   03         lab17     ???                ;%00000011
ab18   15 30                ora $30,x
ab1a   06 17                asl $17
ab1c   19 12 08             ora $0812,y
ab1f   02                   ???                ;%00000010
ab20   12                   ???                ;%00010010
ab21   20 08 12             jsr $1208
ab24   08                   php
ab25   30 20                bmi lab47
ab27   00                   brk
ab28   20 40 04             jsr $0440
ab2b   00                   brk
ab2c   25 25                and $25
ab2e   25 05                and $05
ab30   20 75 04             jsr $0475
ab33   00                   brk
ab34   30 25                bmi lab5b
ab36   25 10                and $10
ab38   30 99                bmi laad3
ab3a   02                   ???                ;%00000010
ab3b   30 25                bmi lab62
ab3d   25 05                and $05
ab3f   10 30                bpl lab71
ab41   80                   ???                ;%10000000
ab42   01 25                ora ($25,x)
ab44   18                   clc
ab45   17                   ???                ;%00010111
ab46   09 04                ora #$04
ab48   15 15                ora $15,x
ab4a   04                   ???                ;%00000100
ab4b   15 00                ora $00,x
ab4d   00                   brk
ab4e   00                   brk
ab4f   00                   brk
ab50   00                   brk
ab51   00                   brk
ab52   00                   brk
ab53   00                   brk
ab54   00                   brk
ab55   00                   brk
ab56   00                   brk
ab57   00                   brk
ab58   00                   brk
ab59   00                   brk
ab5a   00                   brk
ab5b   00         lab5b     brk
ab5c   10 30                bpl lab8e
ab5e   15 04                ora $04,x
ab60   20 20 16             jsr $1620
ab63   05 17                ora $17
ab65   10 08                bpl lab6f
ab67   00                   brk
ab68   15 40                ora $40,x
ab6a   04                   ???                ;%00000100
ab6b   00                   brk
ab6c   05 17                ora $17
ab6e   06 00                asl $00
ab70   06 05                asl $05
ab72   10 00                bpl lab74
ab74   25 30      lab74     and $30
ab76   30 10                bmi lab88
ab78   30 99                bmi lab13
ab7a   01 00                ora ($00,x)
ab7c   cd e1 e7             cmp $e7e1
ab7f   65 c2                adc $c2
ab81   e1 f2                sbc ($f2,x)
ab83   64                   ???                ;%01100100 'd'
ab84   c6 e9                dec $e9
ab86   e7                   ???                ;%11100111
ab87   e8                   inx
ab88   f4         lab88     ???                ;%11110100
ab89   e5 72                sbc $72
ab8b   c1 f6                cmp ($f6,x)
ab8d   e1 f4                sbc ($f4,x)
ab8f   e1 72                sbc ($72,x)
ab91   d6 e9                dec $e9,x
ab93   ec ec e1             cpx $e1ec
ab96   e7                   ???                ;%11100111
ab97   e5 72                sbc $72
ab99   cd e5 f2             cmp $f2e5
ab9c   e3                   ???                ;%11100011
ab9d   e8                   inx
ab9e   e1 ee                sbc ($ee,x)
aba0   74                   ???                ;%01110100 't'
aba1   ca                   dex
aba2   e5 f3                sbc $f3
aba4   f4                   ???                ;%11110100
aba5   e5 72                sbc $72
aba7   c2                   ???                ;%11000010
aba8   e1 f2                sbc ($f2,x)
abaa   64                   ???                ;%01100100 'd'
abab   78                   sei
abac   78                   sei
abad   c3                   ???                ;%11000011
abae   e8                   inx
abaf   e9 ec                sbc #$ec
abb1   64                   ???                ;%01100100 'd'
abb2   c2                   ???                ;%11000010
abb3   e5 e7                sbc $e7
abb5   e7                   ???                ;%11100111
abb6   e5 72                sbc $72
abb8   c7                   ???                ;%11000111
abb9   f5 e1                sbc $e1,x
abbb   f2                   ???                ;%11110010
abbc   64                   ???                ;%01100100 'd'
abbd   d7                   ???                ;%11010111
abbe   e1 ee                sbc ($ee,x)
abc0   e4 e5                cpx $e5
abc2   f2                   ???                ;%11110010
abc3   e5 72                sbc $72
abc5   c2                   ???                ;%11000010
abc6   ec e1 e3             cpx $e3e1
abc9   eb                   ???                ;%11101011
abca   f4                   ???                ;%11110100
abcb   e8                   inx
abcc   ef                   ???                ;%11101111
abcd   f2                   ???                ;%11110010
abce   6e d2 ef             ror $efd2
abd1   e4 e5                cpx $e5
abd3   ee f4 a0             inc $a0f4
abd6   ef                   ???                ;%11101111
abd7   e6 a0                inc $a0
abd9   d5 ee                cmp $ee,x
abdb   f5 f3                sbc $f3,x
abdd   f5 e1                sbc $e1,x
abdf   ec a0 d3             cpx $d3a0
abe2   e9 fa                sbc #$fa
abe4   65 d3                adc $d3
abe6   e5 e1                sbc $e1
abe8   a0 c8                ldy #$c8
abea   ef                   ???                ;%11101111
abeb   f2                   ???                ;%11110010
abec   f3                   ???                ;%11110011
abed   65 d3                adc $d3
abef   f1 f5                sbc ($f5),y
abf1   e9 64                sbc #$64
abf3   d3                   ???                ;%11010011
abf4   e5 e1                sbc $e1
abf6   a0 d3                ldy #$d3
abf8   e5 f2                sbc $f2
abfa   f0 e5                beq labe1
abfc   ee 74 d3             inc $d374
abff   e8                   inx
ac00   e1 f2                sbc ($f2,x)
ac02   6b                   ???                ;%01101011 'k'
ac03   c7                   ???                ;%11000111
ac04   e9 e1                sbc #$e1
ac06   ee f4 a0             inc $a0f4
ac09   d2                   ???                ;%11010010
ac0a   e1 74                sbc ($74,x)
ac0c   c2                   ???                ;%11000010
ac0d   e1 74                sbc ($74,x)
ac0f   c7                   ???                ;%11000111
ac10   e9 e1                sbc #$e1
ac12   ee f4 a0             inc $a0f4
ac15   d3                   ???                ;%11010011
ac16   f0 e9                beq lac01
ac18   e4 e5                cpx $e5
ac1a   72                   ???                ;%01110010 'r'
ac1b   c7         lac1b     ???                ;%11000111
ac1c   e8                   inx
ac1d   ef                   ???                ;%11101111
ac1e   f3                   ???                ;%11110011
ac1f   74                   ???                ;%01110100 't'
ac20   d3                   ???                ;%11010011
ac21   ec e9 ed             cpx $ede9
ac24   65 c7                adc $c7
ac26   f2                   ???                ;%11110010
ac27   e5 ed                sbc $ed
ac29   ec e9 6e             cpx $6ee9
ac2c   cd e9 ed             cmp $ede9
ac2f   e9 63                sbc #$63
ac31   d2                   ???                ;%11010010
ac32   e5 e1                sbc $e1
ac34   f0 e5                beq lac1b
ac36   72                   ???                ;%01110010 'r'
ac37   c7                   ???                ;%11000111
ac38   e1 fa                sbc ($fa,x)
ac3a   e5 72                sbc $72
ac3c   c3                   ???                ;%11000011
ac3d   f2                   ???                ;%11110010
ac3e   e1 f7      lac3e     sbc ($f7,x)
ac40   ec e5 72             cpx $72e5
ac43   c7                   ???                ;%11000111
ac44   e1 f2                sbc ($f2,x)
ac46   e7                   ???                ;%11100111
ac47   ef                   ???                ;%11101111
ac48   f9 ec 65             sbc $65ec,y
ac4b   c9 ee                cmp #$ee
ac4d   f3                   ???                ;%11110011
ac4e   e5 e3                sbc $e3
ac50   f4                   ???                ;%11110100
ac51   a0 d3                ldy #$d3
ac53   f7                   ???                ;%11110111
ac54   e1 f2                sbc ($f2,x)
ac56   6d cf f2             adc $f2cf
ac59   63                   ???                ;%01100011 'c'
ac5a   d3                   ???                ;%11010011
ac5b   eb                   ???                ;%11101011
ac5c   e5 ec                sbc $ec
ac5e   e5 f4                sbc $f4
ac60   ef                   ???                ;%11101111
ac61   6e d0 f9             ror $f9d0
ac64   f4                   ???                ;%11110100
ac65   e8                   inx
ac66   ef                   ???                ;%11101111
ac67   6e c5 f4             ror $f4c5
ac6a   f4                   ???                ;%11110100
ac6b   e9 6e                sbc #$6e
ac6d   c8                   iny
ac6e   e5 e1                sbc $e1
ac70   e4 ec                cpx $ec
ac72   e5 f3                sbc $f3
ac74   73                   ???                ;%01110011 's'
ac75   d7                   ???                ;%11010111
ac76   e9 f3                sbc #$f3
ac78   70 c4                bvs lac3e
ac7a   e1 e5                sbc ($e5,x)
ac7c   ed ef 6e             sbc $6eef
ac7f   c4 f2                cpy $f2
ac81   e1 e7                sbc ($e7,x)
ac83   ef                   ???                ;%11101111
ac84   6e d3 e1             ror $e1d3
ac87   ee e4 a0             inc $a0e4
ac8a   d4                   ???                ;%11010100
ac8b   f2                   ???                ;%11110010
ac8c   e1 70                sbc ($70,x)
ac8e   d4                   ???                ;%11010100
ac8f   f2                   ???                ;%11110010
ac90   ef                   ???                ;%11101111
ac91   ec 6c 78   lac91     cpx $786c
ac94   78         lac94     sei
ac95   cd ef ee             cmp $eeef
ac98   e7                   ???                ;%11100111
ac99   e2                   ???                ;%11100010
ac9a   e1 74                sbc ($74,x)
ac9c   c3                   ???                ;%11000011
ac9d   ef                   ???                ;%11101111
ac9e   f2                   ???                ;%11110010
ac9f   f0 f3                beq lac94
aca1   e5 72                sbc $72
aca3   d2                   ???                ;%11010010
aca4   ef                   ???                ;%11101111
aca5   f4                   ???                ;%11110100
aca6   a0 d7      laca6     ldy #$d7
aca8   ef                   ???                ;%11101111
aca9   f2                   ???                ;%11110010
acaa   6d d3 e8             adc $e8d3
acad   e1 e4                sbc ($e4,x)
acaf   ef                   ???                ;%11101111
acb0   f7                   ???                ;%11110111
acb1   ec ef f2             cpx $f2ef
acb4   64                   ???                ;%01100100 'd'
acb5   c4 44                cpy $44
acb7   44                   ???                ;%01000100 'D'
acb8   4c 50 50             jmp $5050
acbb   50 50                bvc $ad0d
acbd   50 50      lacbd     bvc $ad0f
acbf   68                   pla
acc0   50 70                bvc $ad32
acc2   00                   brk
acc3   00                   brk
acc4   00                   brk
acc5   84 80                sty $80
acc7   84 00                sty $00
acc9   c4 00                cpy $00
accb   90 c4                bcc lac91
accd   00                   brk
acce   a8                   tay
accf   cc 94 94             cpy $9494
acd2   a0 00                ldy #$00
acd4   a0 e4                ldy #$e4
acd6   40                   rti
acd7   98                   tya
acd8   d0 cc                bne laca6
acda   9c                   ???                ;%10011100
acdb   dc                   ???                ;%11011100
acdc   00                   brk
acdd   00                   brk
acde   90 00                bcc lace0
ace0   00         lace0     brk
ace1   00                   brk
ace2   00                   brk
ace3   90 d8                bcc lacbd
ace5   ee 69 43             inc $4369
ace8   ad 69 43             lda $4369
aceb   49 0a                eor #$0a
aced   d0 0b                bne lacfa
acef   8d 69 43             sta $4369
acf2   a9 01                lda #$01
acf4   20 2d 4c             jsr $4c2d
acf7   4c 30 4c             jmp $4c30
acfa   60         lacfa     rts
                            .end

;auto-generated symbols and labels
 l8278      $8278
 l8290      $8290
 l8321      $8321
 l8326      $8326
 l8364      $8364
 l8379      $8379
 l8390      $8390
 l8403      $8403
 l8404      $8404
 l8441      $8441
 l8461      $8461
 l8479      $8479
 l8487      $8487
 l8506      $8506
 l8515      $8515
 l8518      $8518
 l8540      $8540
 l8542      $8542
 l8550      $8550
 l8553      $8553
 l8557      $8557
 l8566      $8566
 l8583      $8583
 l8592      $8592
 l8601      $8601
 l8624      $8624
 l8626      $8626
 l8665      $8665
 l8672      $8672
 l8676      $8676
 l8701      $8701
 l8703      $8703
 l8719      $8719
 l8742      $8742
 l8752      $8752
 l8762      $8762
 l8765      $8765
 l8780      $8780
 l8786      $8786
 l8809      $8809
 l8817      $8817
 l8884      $8884
 l8910      $8910
 l8930      $8930
 l8942      $8942
 l8956      $8956
 l8982      $8982
 l9005      $9005
 l9006      $9006
 l9012      $9012
 l9028      $9028
 l9032      $9032
 l9075      $9075
 l9078      $9078
 l9079      $9079
 l9081      $9081
 l9120      $9120
 l9163      $9163
 l9173      $9173
 l9184      $9184
 l9195      $9195
 l9215      $9215
 l9252      $9252
 l9255      $9255
 l9270      $9270
 l9290      $9290
 l9311      $9311
 l9320      $9320
 l9350      $9350
 l9351      $9351
 l9353      $9353
 l9386      $9386
 l9388      $9388
 l9390      $9390
 l9403      $9403
 l9406      $9406
 l9433      $9433
 l9436      $9436
 l9437      $9437
 l9464      $9464
 l9470      $9470
 l9471      $9471
 l9491      $9491
 l9495      $9495
 l9519      $9519
 l9520      $9520
 l9527      $9527
 l9534      $9534
 l9540      $9540
 l9570      $9570
 l9571      $9571
 l9597      $9597
 l9602      $9602
 l9621      $9621
 l9657      $9657
 l9680      $9680
 l9688      $9688
 l9700      $9700
 l9715      $9715
 l9718      $9718
 l9737      $9737
 l9739      $9739
 l9747      $9747
 l9748      $9748
 l9760      $9760
 l9789      $9789
 l9796      $9796
 l9812      $9812
 l9828      $9828
 l9829      $9829
 l9833      $9833
 l9838      $9838
 l9847      $9847
 l9852      $9852
 l9855      $9855
 l9892      $9892
 l9899      $9899
 l9910      $9910
 l9913      $9913
 l9921      $9921
 l9925      $9925
 l9937      $9937
 l9941      $9941
 l9956      $9956
 l9972      $9972
 l9980      $9980
 l81e9      $81e9
 l8a92      $8a92
 l9b92      $9b92
 la23d      $a23d
 l95e5      $95e5
 la1fe      $a1fe
 l97d7      $97d7
 la2a8      $a2a8
 l9de4      $9de4
 l940c      $940c
 l93ba      $93ba
 la2f8      $a2f8
 l99bc      $99bc
 l9fe1      $9fe1
 l98d7      $98d7
 l98c6      $98c6
 l96be      $96be
 l95bf      $95bf
 l98e8      $98e8
 la3db      $a3db
 l97a9      $97a9
 l80db      $80db
 l80f1      $80f1
 l81ed      $81ed
 l81fc      $81fc
 la473      $a473
 l826e      $826e
 l82a7      $82a7
 l82a9      $82a9
 l82b4      $82b4
 l82d5      $82d5
 l962f      $962f
 la5d2      $a5d2
 l82dd      $82dd
 l91f4      $91f4
 l96b4      $96b4
 l830e      $830e
 la23a      $a23a
 l82df      $82df
 l83a1      $83a1
 l83b1      $83b1
 la68d      $a68d
 l83d3      $83d3
 l841f      $841f
 l83fb      $83fb
 l83f7      $83f7
 l840a      $840a
 l83bb      $83bb
 l846e      $846e
 la666      $a666
 l851f      $851f
 l846d      $846d
 l84e7      $84e7
 l84af      $84af
 l84d3      $84d3
 l84db      $84db
 l849a      $849a
 l850b      $850b
 l84ec      $84ec
 l853d      $853d
 la700      $a700
 l85ab      $85ab
 l858c      $858c
 l85a8      $85a8
 l866f      $866f
 l85c4      $85c4
 l85dc      $85dc
 l959e      $959e
 l85d9      $85d9
 l85e1      $85e1
 l938d      $938d
 l96ea      $96ea
 l86d1      $86d1
 la32b      $a32b
 la0bd      $a0bd
 l871f      $871f
 la09a      $a09a
 l86e0      $86e0
 l86dd      $86dd
 la504      $a504
 l873f      $873f
 l8fde      $8fde
 l8fd5      $8fd5
 l87a3      $87a3
 l96b1      $96b1
 l9fd5      $9fd5
 l879f      $879f
 la42e      $a42e
 l939b      $939b
 l87f5      $87f5
 l87e9      $87e9
 l939e      $939e
 l93be      $93be
 l87c9      $87c9
 l93a0      $93a0
 l884c      $884c
 l883a      $883a
 la4a0      $a4a0
 l8fcc      $8fcc
 l885f      $885f
 la29e      $a29e
 l88c1      $88c1
 l886f      $886f
 l88a9      $88a9
 l884b      $884b
 l88f8      $88f8
 l881c      $881c
 l9f48      $9f48
 l898d      $898d
 l88ed      $88ed
 l89b8      $89b8
 l89b5      $89b5
 l89df      $89df
 l89f4      $89f4
 l8a0a      $8a0a
 l89fb      $89fb
 l8a21      $8a21
 l8a26      $8a26
 l8a3f      $8a3f
 l8a48      $8a48
 l8a31      $8a31
 la675      $a675
 l8a89      $8a89
 l8a59      $8a59
 l8aab      $8aab
 l8ab2      $8ab2
 l8ac4      $8ac4
 l8b18      $8b18
 la69c      $a69c
 l8ae8      $8ae8
 l8af2      $8af2
 la681      $a681
 l8b04      $8b04
 la43e      $a43e
 l8b29      $8b29
 l8b1c      $8b1c
 la4ce      $a4ce
 l8b31      $8b31
 l8b32      $8b32
 l8b40      $8b40
 la5bc      $a5bc
 l8b67      $8b67
 la54b      $a54b
 l9eba      $9eba
 l8b7d      $8b7d
 l8b8f      $8b8f
 l8b98      $8b98
 l8b93      $8b93
 l8f83      $8f83
 l9f51      $9f51
 l8bbc      $8bbc
 la629      $a629
 la70c      $a70c
 l8fac      $8fac
 l8c2a      $8c2a
 l8c44      $8c44
 l8bda      $8bda
 l8f9c      $8f9c
 l8c9e      $8c9e
 l8c8b      $8c8b
 la709      $a709
 l8ccc      $8ccc
 l8d3d      $8d3d
 l8d37      $8d37
 l8d40      $8d40
 l8d03      $8d03
 l8d23      $8d23
 la703      $a703
 l8db6      $8db6
 l8dea      $8dea
 l8d7e      $8d7e
 l8da9      $8da9
 l8dde      $8dde
 l8dcb      $8dcb
 l8df6      $8df6
 l8e4a      $8e4a
 l8e52      $8e52
 l8e4d      $8e4d
 l8e34      $8e34
 la706      $a706
 l8e62      $8e62
 l8ebd      $8ebd
 l8f09      $8f09
 l8f28      $8f28
 l8f73      $8f73
 l8f24      $8f24
 l8f5d      $8f5d
 l8f70      $8f70
 l8f4b      $8f4b
 l8f60      $8f60
 l8f99      $8f99
 l8fab      $8fab
 l8fa9      $8fa9
 la62e      $a62e
 la3f7      $a3f7
 l9fb0      $9fb0
 la48c      $a48c
 l8ff2      $8ff2
 l903c      $903c
 la05f      $a05f
 la0e0      $a0e0
 l908a      $908a
 l9cde      $9cde
 l904d      $904d
 l94fd      $94fd
 l9bd3      $9bd3
 l90e3      $90e3
 l90c4      $90c4
 l90c1      $90c1
 l90a8      $90a8
 l90e5      $90e5
 l90f6      $90f6
 l90ff      $90ff
 l910d      $910d
 l914b      $914b
 l91aa      $91aa
 l91a8      $91a8
 l91cd      $91cd
 l91e1      $91e1
 l91e3      $91e3
 l920f      $920f
 l92a3      $92a3
 l927d      $927d
 l92eb      $92eb
 l92f1      $92f1
 l92fb      $92fb
 l930d      $930d
 l934a      $934a
 l939a      $939a
 l93b1      $93b1
 l93b6      $93b6
 l93d5      $93d5
 l93cf      $93cf
 l93c7      $93c7
 l93ee      $93ee
 l93e9      $93e9
 l93da      $93da
 l93f3      $93f3
 l942f      $942f
 l949e      $949e
 l94d3      $94d3
 l94df      $94df
 l950a      $950a
 l955a      $955a
 l95d6      $95d6
 l962b      $962b
 l95f6      $95f6
 l95ef      $95ef
 l963e      $963e
 l964f      $964f
 l969f      $969f
 l96fa      $96fa
 l971b      $971b
 l970b      $970b
 l971f      $971f
 l976e      $976e
 l977c      $977c
 l97a0      $97a0
 l959b      $959b
 l97b4      $97b4
 l97c2      $97c2
 l97c5      $97c5
 l97ce      $97ce
 l97e1      $97e1
 l980e      $980e
 l97ff      $97ff
 l981b      $981b
 l984a      $984a
 l989d      $989d
 l989c      $989c
 l97ea      $97ea
 l98c5      $98c5
 l991b      $991b
 l98f3      $98f3
 l99a4      $99a4
 l999d      $999d
 l98a2      $98a2
 l9a30      $9a30
 l99d5      $99d5
 l99f1      $99f1
 l99f4      $99f4
 l9a07      $9a07
 l9a2d      $9a2d
 l9a60      $9a60
 l9a6a      $9a6a
 l9b46      $9b46
 l9a77      $9a77
 l9b43      $9b43
 l9ac6      $9ac6
 l9ac1      $9ac1
 l9b14      $9b14
 l9aee      $9aee
 l9afc      $9afc
 l9b19      $9b19
 l9b40      $9b40
 l9b91      $9b91
 la211      $a211
 l9b6a      $9b6a
 l9b70      $9b70
 l9b52      $9b52
 l9bc8      $9bc8
 l9bcc      $9bcc
 l9b9a      $9b9a
 l9bfa      $9bfa
 l9bf9      $9bf9
 l9bea      $9bea
 l9bf7      $9bf7
 l9c0a      $9c0a
 l9c1e      $9c1e
 l9ca3      $9ca3
 l9c3c      $9c3c
 l9c49      $9c49
 l9c67      $9c67
 l9c6c      $9c6c
 l9c92      $9c92
 l9c90      $9c90
 l9ca1      $9ca1
 l9c9f      $9c9f
 l9cab      $9cab
 l9c11      $9c11
 l9cd6      $9cd6
 l9cd7      $9cd7
 l9cd1      $9cd1
 l9cbd      $9cbd
 l9d31      $9d31
 l9d32      $9d32
 l92c1      $92c1
 l9d0d      $9d0d
 l9da0      $9da0
 l9d5d      $9d5d
 l9dbe      $9dbe
 l9d80      $9d80
 l9dd1      $9dd1
 l9d52      $9d52
 l9da2      $9da2
 l9d67      $9d67
 l9dd0      $9dd0
 l9de3      $9de3
 l9dfe      $9dfe
 l9e8b      $9e8b
 l9e2b      $9e2b
 l9e41      $9e41
 l9e5d      $9e5d
 l9e13      $9e13
 l9e56      $9e56
 l9e70      $9e70
 l9e6c      $9e6c
 l9e75      $9e75
 l9e7a      $9e7a
 l9e7f      $9e7f
 l9e84      $9e84
 l9e8a      $9e8a
 l9e9b      $9e9b
 l9ea8      $9ea8
 l951b      $951b
 l9eb8      $9eb8
 l9edd      $9edd
 l9ec8      $9ec8
 l9ed9      $9ed9
 l9ee7      $9ee7
 l9eed      $9eed
 l9efb      $9efb
 l9f16      $9f16
 l9f1f      $9f1f
 l9f0c      $9f0c
 l9f38      $9f38
 l9f3b      $9f3b
 l9f41      $9f41
 l9f3e      $9f3e
 l9fad      $9fad
 l9fa4      $9fa4
 l9f61      $9f61
 l9fbf      $9fbf
 l9fb2      $9fb2
 l9fbb      $9fbb
 l9fee      $9fee
 l9ff3      $9ff3
 la001      $a001
 l96f0      $96f0
 la055      $a055
 la058      $a058
 la012      $a012
 la04c      $a04c
 la048      $a048
 la06c      $a06c
 la07e      $a07e
 la077      $a077
 la083      $a083
 la088      $a088
 la094      $a094
 la0b7      $a0b7
 la0a1      $a0a1
 la0da      $a0da
 la0c4      $a0c4
 la0ea      $a0ea
 la0ec      $a0ec
 la150      $a150
 la151      $a151
 l957f      $957f
 la14f      $a14f
 la130      $a130
 la12b      $a12b
 la198      $a198
 la185      $a185
 la180      $a180
 la1fc      $a1fc
 la210      $a210
 la217      $a217
 la225      $a225
 la239      $a239
 la28c      $a28c
 la28a      $a28a
 la26a      $a26a
 la287      $a287
 la29c      $a29c
 la2f7      $a2f7
 la2ef      $a2ef
 la2c9      $a2c9
 la2ec      $a2ec
 la30a      $a30a
 la300      $a300
 la3bc      $a3bc
 la354      $a354
 la3ac      $a3ac
 la3ab      $a3ab
 la39b      $a39b
 la3d3      $a3d3
 la373      $a373
 la3f6      $a3f6
 la3ec      $a3ec
 la3eb      $a3eb
 la42d      $a42d
 la426      $a426
 la408      $a408
 la43d      $a43d
 la472      $a472
 la46b      $a46b
 la47d      $a47d
 la49f      $a49f
 la4b0      $a4b0
 la502      $a502
 la541      $a541
 la50b      $a50b
 la55f      $a55f
 la57a      $a57a
 la57b      $a57b
 la57e      $a57e
 la572      $a572
 la58e      $a58e
 la5ab      $a5ab
 l98eb      $98eb
 la590      $a590
 la5cb      $a5cb
 la5e8      $a5e8
 la625      $a625
 la605      $a605
 la650      $a650
 la651      $a651
 la6c7      $a6c7
 la6c8      $a6c8
 la75c      $a75c
 la777      $a777
 la787      $a787
 la794      $a794
 la7cb      $a7cb
 la8f0      $a8f0
 la8e0      $a8e0
 la8e2      $a8e2
 la9c4      $a9c4
 la93f      $a93f
 la975      $a975
 la9fb      $a9fb
 laa13      $aa13
 laa06      $aa06
 laa0c      $aa0c
 laa2d      $aa2d
 laa3a      $aa3a
 laa6f      $aa6f
 laa96      $aa96
 laa98      $aa98
 laa9e      $aa9e
 laaa0      $aaa0
 laa0b      $aa0b
 laaa6      $aaa6
 laaa8      $aaa8
 laab2      $aab2
 lab02      $ab02
 laa9c      $aa9c
 laaa9      $aaa9
 laabe      $aabe
 laab7      $aab7
 laad9      $aad9
 laae7      $aae7
 laaca      $aaca
 laade      $aade
 lab04      $ab04
 lab13      $ab13
 lab17      $ab17
 lab47      $ab47
 lab5b      $ab5b
 laad3      $aad3
 lab62      $ab62
 lab71      $ab71
 lab8e      $ab8e
 lab6f      $ab6f
 lab74      $ab74
 lab88      $ab88
 labe1      $abe1
 lac01      $ac01
 lac1b      $ac1b
 lac3e      $ac3e
 lac94      $ac94
 lac91      $ac91
 laca6      $aca6
 lace0      $ace0
 lacbd      $acbd
 lacfa      $acfa
