                            * = $8000
8000   a0 c0                ldy #$c0
8002   b9 3f 82   l8002     lda $823f,y
8005   99 00 14             sta $1400,y
8008   b9 ff 82             lda $82ff,y
800b   99 c0 14             sta $14c0,y
800e   c0 18                cpy #$18
8010   90 03                bcc l8015
8012   88                   dey
8013   d0 ed                bne l8002
8015   b9 bf 83   l8015     lda $83bf,y
8018   99 d0 03             sta $03d0,y
801b   b9 d8 83             lda $83d8,y
801e   99 e8 03             sta $03e8,y
8021   88                   dey
8022   10 de                bpl l8002
8024   20 08 82             jsr l8208
8027   20 1e 82             jsr l821e
802a   a2 18                ldx #$18
802c   8e 18 d0             stx $d018
802f   a9 00                lda #$00
8031   8d 20 d0             sta $d020
8034   8d 21 d0             sta $d021
8037   a9 3b                lda #$3b
8039   8d 11 d0             sta $d011
803c   a2 00                ldx #$00
803e   20 24 6c             jsr $6c24
8041   4854585400                              ; HTXT 
8046   a2 00                ldx #$00
8048   20 24 6c             jsr $6c24
804b   4d 41 49 4e 2e 53 55 42 53 00           ; MAIN.SUBS
8055   a9 0b                lda #$0b
8057   85 ca                sta $ca
8059   a9 0d                lda #$0d
805b   85 c9                sta $c9
805d   20 00 4c             jsr $4c00
8060   ca ef f5 f2 ee e5 f9 a0 cf ee f7 e1 f2 e4 00
806f   a9 58                lda #$58
8071   85 72                sta $72
8073   a5 c8                lda $c8
8075   10 2a                bpl l80a1
8077   a9 f8                lda #$f8
8079   85 fe                sta $fe
807b   a9 ff                lda #$ff
807d   85 ff                sta $ff
807f   a9 fe                lda #$fe
8081   8d b9 02             sta $02b9
8084   a0 03                ldy #$03
8086   a2 7f      l8086     ldx #$7f
8088   b9 3b 82             lda $823b,y
808b   20 af 02             jsr $02af
808e   88                   dey
808f   10 f5                bpl l8086
8091   a2 00      l8091     ldx #$00
8093   20 24 6c             jsr $6c24
8096   53 55 42 53 2e 31 32 38 00              ; SUBS.128
809f   b0 f0                bcs l8091
80a1   a2 00      l80a1     ldx #$00
80a3   20 24 6c             jsr $6c24
80a6   533300                                  ; S3
80a9   b0 f6                bcs l80a1
80ab   20 06 6c             jsr $6c06
80ae   a2 00                ldx #$00
80b0   e0 0f      l80b0     cpx #$0f
80b2   90 06                bcc l80ba
80b4   bd 00 cf             lda $cf00,x
80b7   9d 00 ff             sta $ff00,x
80ba   bd 00 ce   l80ba     lda $ce00,x
80bd   9d 00 fe             sta $fe00,x
80c0   bd 00 cd             lda $cd00,x
80c3   9d 00 fd             sta $fd00,x
80c6   bd 00 cc             lda $cc00,x
80c9   9d 00 fc             sta $fc00,x
80cc   bd 00 cb             lda $cb00,x
80cf   9d 00 fb             sta $fb00,x
80d2   bd 00 ca             lda $ca00,x
80d5   9d 00 fa             sta $fa00,x
80d8   bd 00 c9             lda $c900,x
80db   9d 00 f9             sta $f900,x
80de   bd 00 c8             lda $c800,x
80e1   9d 00 f8             sta $f800,x
80e4   bd 00 c7             lda $c700,x
80e7   9d 00 f7             sta $f700,x
80ea   bd 00 c6             lda $c600,x
80ed   9d 00 f6             sta $f600,x
80f0   bd 00 c5             lda $c500,x
80f3   9d 00 f5             sta $f500,x
80f6   bd 00 c4             lda $c400,x
80f9   9d 00 f4             sta $f400,x
80fc   bd 00 c3             lda $c300,x
80ff   9d 00 f3             sta $f300,x
8102   bd 00 c2             lda $c200,x
8105   9d 00 f2             sta $f200,x
8108   bd 00 c1             lda $c100,x
810b   9d 00 f1             sta $f100,x
810e   bd 00 c0             lda $c000,x
8111   9d 00 f0             sta $f000,x
8114   ca                   dex
8115   d0 99                bne l80b0
8117   20 03 6c             jsr $6c03
811a   a2 00      l811a     ldx #$00
811c   20 24 6c             jsr $6c24
811f   533200                                  ; S2
8122   b0 f6                bcs l811a
8124   a9 e0                lda #$e0
8126   20 e6 81             jsr l81e6
8129   a2 00      l8129     ldx #$00
812b   20 24 6c             jsr $6c24
812e   53 31 00                                ; S1
8131   b0 f6                bcs l8129
8133   a9 d0                lda #$d0
8135   20 e6 81             jsr l81e6
8138   a2 00      l8138     ldx #$00
813a   20 24 6c             jsr $6c24
55 50 44 41 54 45 2e 48 49 4d 45 4d 00         ; UPDATE.HIMEM
814a   b0 ec                bcs l8138
814c   a2 00      l814c     ldx #$00
814e   20 24 6c             jsr $6c24
43 4f 4c 4f 52 53 00                           ; COLORS
8158   b0 f2                bcs l814c
815a   78                   sei
815b   a5 c8                lda $c8
815d   10 03                bpl l8162
815f   20 89 1d             jsr $1d89
8162   a2 00      l8162     ldx #$00
8164   bd 00 b0   l8164     lda $b000,x
8167   9d 00 08             sta $0800,x
816a   bd 00 b1             lda $b100,x
816d   9d 00 09             sta $0900,x
8170   bd 00 b2             lda $b200,x
8173   9d 00 0a             sta $0a00,x
8176   bd 00 b3             lda $b300,x
8179   9d 00 0b             sta $0b00,x
817c   bd 00 b4             lda $b400,x
817f   9d 00 0c             sta $0c00,x
8182   bd 00 b5             lda $b500,x
8185   9d 00 0d             sta $0d00,x
8188   bd 00 b6             lda $b600,x
818b   9d 00 0e             sta $0e00,x
818e   bd 00 b7             lda $b700,x
8191   9d 00 0f             sta $0f00,x
8194   ca                   dex
8195   d0 cd                bne l8164
8197   a5 c8                lda $c8
8199   10 03                bpl l819e
819b   20 89 1d             jsr $1d89
819e   58         l819e     cli
819f   a2 00      l819f     ldx #$00
81a1   20 24 6c             jsr $6c24
81a4   53 30 00                               ; S0
81a7   b0 f6      l81a7     bcs l819f
81a9   ad 86 e4             lda $e486
81ac   c9 46                cmp #$46
81ae   f0 1e                beq l81ce
81b0   20 9f 4c             jsr $4c9f
81b3   a9 09                lda #$09
81b5   a2 00                ldx #$00
81b7   86 90                stx $90
81b9   20 b1 ff             jsr $ffb1
81bc   a9 6f                lda #$6f
81be   20 93 ff             jsr $ff93
81c1   20 ae ff             jsr $ffae
81c4   24 90                bit $90
81c6   d0 06                bne l81ce
81c8   a5 c8                lda $c8
81ca   09 01                ora #$01
81cc   85 c8                sta $c8
81ce   20 a2 4c   l81ce     jsr $4ca2
81d1   20 2a 4c             jsr $4c2a
81d4   46 88                lsr $88
81d6   a2 01                ldx #$01
81d8   20 24 6c             jsr $6c24
81db   45 4e 54 45 52 2e 50 4c 41 59 00         ; ENTER.PLAY
81e6   85 fd      l81e6     sta $fd
81e8   a9 c0                lda #$c0
81ea   85 ff                sta $ff
81ec   20 06 6c             jsr $6c06
81ef   a0 00                ldy #$00
81f1   84 fe                sty $fe
81f3   84 fc                sty $fc
81f5   a2 10                ldx #$10
81f7   b1 fe      l81f7     lda ($fe),y
81f9   91 fc                sta ($fc),y
81fb   c8                   iny
81fc   d0 f9                bne l81f7
81fe   e6 ff                inc $ff
8200   e6 fd                inc $fd
8202   ca                   dex
8203   d0 f2                bne l81f7
8205   4c 03 6c             jmp $6c03
8208   a2 20      l8208     ldx #$20
820a   86 fd                stx $fd
820c   a2 20                ldx #$20
820e   a9 00                lda #$00
8210   85 fc                sta $fc
8212   a8                   tay
8213   91 fc      l8213     sta ($fc),y
8215   c8                   iny
8216   d0 fb                bne l8213
8218   e6 fd                inc $fd
821a   ca                   dex
821b   d0 f6                bne l8213
821d   60                   rts
821e   a2 00      l821e     ldx #$00
8220   a9 10                lda #$10
8222   9d 00 04   l8222     sta $0400,x
8225   9d 00 05             sta $0500,x
8228   9d 00 06             sta $0600,x
822b   9d 00 07             sta $0700,x
822e   ca                   dex
822f   d0 f1                bne l8222
8231   8a                   txa
8232   a2 27                ldx #$27
8234   9d 00 04   l8234     sta $0400,x
8237   ca                   dex
8238   10 fa                bpl l8234
823a   60                   rts
823b   40                   rti
823c   40                   rti
823d   f8                   sed
823e   ff                   ???                ;%11111111
823f   40                   rti
8240   41 42                eor ($42,x)
8242   43                   ???                ;%01000011 'C'
8243   44                   ???                ;%01000100 'D'
8244   45 46                eor $46
8246   47                   ???                ;%01000111 'G'
8247   80                   ???                ;%10000000
8248   81 82                sta ($82,x)
824a   83                   ???                ;%10000011
824b   84 85                sty $85
824d   86 87                stx $87
824f   c0 c1                cpy #$c1
8251   c2                   ???                ;%11000010
8252   c3                   ???                ;%11000011
8253   c4 c5                cpy $c5
8255   c6 c7                dec $c7
8257   00                   brk
8258   01 02                ora ($02,x)
825a   03                   ???                ;%00000011
825b   04                   ???                ;%00000100
825c   05 06                ora $06
825e   07                   ???                ;%00000111
825f   40                   rti
8260   41 42                eor ($42,x)
8262   43                   ???                ;%01000011 'C'
8263   44                   ???                ;%01000100 'D'
8264   45 46                eor $46
8266   47                   ???                ;%01000111 'G'
8267   80                   ???                ;%10000000
8268   81 82                sta ($82,x)
826a   83                   ???                ;%10000011
826b   84 85                sty $85
826d   86 87                stx $87
826f   c0 c1                cpy #$c1
8271   c2                   ???                ;%11000010
8272   c3                   ???                ;%11000011
8273   c4 c5                cpy $c5
8275   c6 c7                dec $c7
8277   00                   brk
8278   01 02                ora ($02,x)
827a   03                   ???                ;%00000011
827b   04                   ???                ;%00000100
827c   05 06                ora $06
827e   07                   ???                ;%00000111
827f   40                   rti
8280   41 42                eor ($42,x)
8282   43                   ???                ;%01000011 'C'
8283   44                   ???                ;%01000100 'D'
8284   45 46                eor $46
8286   47                   ???                ;%01000111 'G'
8287   80                   ???                ;%10000000
8288   81 82                sta ($82,x)
828a   83                   ???                ;%10000011
828b   84 85                sty $85
828d   86 87                stx $87
828f   c0 c1                cpy #$c1
8291   c2                   ???                ;%11000010
8292   c3                   ???                ;%11000011
8293   c4 c5                cpy $c5
8295   c6 c7                dec $c7
8297   00                   brk
8298   01 02                ora ($02,x)
829a   03                   ???                ;%00000011
829b   04                   ???                ;%00000100
829c   05 06                ora $06
829e   07                   ???                ;%00000111
829f   40                   rti
82a0   41 42                eor ($42,x)
82a2   43                   ???                ;%01000011 'C'
82a3   44                   ???                ;%01000100 'D'
82a4   45 46                eor $46
82a6   47                   ???                ;%01000111 'G'
82a7   80                   ???                ;%10000000
82a8   81 82                sta ($82,x)
82aa   83                   ???                ;%10000011
82ab   84 85                sty $85
82ad   86 87                stx $87
82af   c0 c1                cpy #$c1
82b1   c2                   ???                ;%11000010
82b2   c3                   ???                ;%11000011
82b3   c4 c5                cpy $c5
82b5   c6 c7                dec $c7
82b7   00                   brk
82b8   01 02                ora ($02,x)
82ba   03                   ???                ;%00000011
82bb   04                   ???                ;%00000100
82bc   05 06                ora $06
82be   07                   ???                ;%00000111
82bf   40                   rti
82c0   41 42                eor ($42,x)
82c2   43                   ???                ;%01000011 'C'
82c3   44                   ???                ;%01000100 'D'
82c4   45 46                eor $46
82c6   47                   ???                ;%01000111 'G'
82c7   80                   ???                ;%10000000
82c8   81 82                sta ($82,x)
82ca   83                   ???                ;%10000011
82cb   84 85                sty $85
82cd   86 87                stx $87
82cf   c0 c1                cpy #$c1
82d1   c2                   ???                ;%11000010
82d2   c3                   ???                ;%11000011
82d3   c4 c5                cpy $c5
82d5   c6 c7                dec $c7
82d7   00                   brk
82d8   01 02                ora ($02,x)
82da   03                   ???                ;%00000011
82db   04                   ???                ;%00000100
82dc   05 06                ora $06
82de   07                   ???                ;%00000111
82df   40                   rti
82e0   41 42                eor ($42,x)
82e2   43                   ???                ;%01000011 'C'
82e3   44                   ???                ;%01000100 'D'
82e4   45 46                eor $46
82e6   47                   ???                ;%01000111 'G'
82e7   80                   ???                ;%10000000
82e8   81 82                sta ($82,x)
82ea   83                   ???                ;%10000011
82eb   84 85                sty $85
82ed   86 87                stx $87
82ef   c0 c1                cpy #$c1
82f1   c2                   ???                ;%11000010
82f2   c3                   ???                ;%11000011
82f3   c4 c5                cpy $c5
82f5   c6 c7                dec $c7
82f7   00                   brk
82f8   01 02                ora ($02,x)
82fa   03                   ???                ;%00000011
82fb   04                   ???                ;%00000100
82fc   05 06                ora $06
82fe   07                   ???                ;%00000111
82ff   21 21                and ($21,x)
8301   21 21                and ($21,x)
8303   21 21                and ($21,x)
8305   21 21                and ($21,x)
8307   22                   ???                ;%00100010 '"'
8308   22                   ???                ;%00100010 '"'
8309   22                   ???                ;%00100010 '"'
830a   22                   ???                ;%00100010 '"'
830b   22                   ???                ;%00100010 '"'
830c   22                   ???                ;%00100010 '"'
830d   22                   ???                ;%00100010 '"'
830e   22                   ???                ;%00100010 '"'
830f   23                   ???                ;%00100011 '#'
8310   23                   ???                ;%00100011 '#'
8311   23                   ???                ;%00100011 '#'
8312   23                   ???                ;%00100011 '#'
8313   23                   ???                ;%00100011 '#'
8314   23                   ???                ;%00100011 '#'
8315   23                   ???                ;%00100011 '#'
8316   23                   ???                ;%00100011 '#'
8317   25 25                and $25
8319   25 25                and $25
831b   25 25                and $25
831d   25 25                and $25
831f   26 26                rol $26
8321   26 26                rol $26
8323   26 26                rol $26
8325   26 26                rol $26
8327   27                   ???                ;%00100111 '''
8328   27                   ???                ;%00100111 '''
8329   27                   ???                ;%00100111 '''
832a   27                   ???                ;%00100111 '''
832b   27                   ???                ;%00100111 '''
832c   27                   ???                ;%00100111 '''
832d   27                   ???                ;%00100111 '''
832e   27                   ???                ;%00100111 '''
832f   28                   plp
8330   28                   plp
8331   28                   plp
8332   28                   plp
8333   28                   plp
8334   28                   plp
8335   28                   plp
8336   28                   plp
8337   2a                   rol a
8338   2a                   rol a
8339   2a                   rol a
833a   2a                   rol a
833b   2a                   rol a
833c   2a                   rol a
833d   2a                   rol a
833e   2a                   rol a
833f   2b                   ???                ;%00101011 '+'
8340   2b                   ???                ;%00101011 '+'
8341   2b                   ???                ;%00101011 '+'
8342   2b                   ???                ;%00101011 '+'
8343   2b                   ???                ;%00101011 '+'
8344   2b                   ???                ;%00101011 '+'
8345   2b                   ???                ;%00101011 '+'
8346   2b                   ???                ;%00101011 '+'
8347   2c 2c 2c             bit $2c2c
834a   2c 2c 2c             bit $2c2c
834d   2c 2c 2d             bit $2d2c
8350   2d 2d 2d             and $2d2d
8353   2d 2d 2d             and $2d2d
8356   2d 2f 2f             and $2f2f
8359   2f                   ???                ;%00101111 '/'
835a   2f                   ???                ;%00101111 '/'
835b   2f                   ???                ;%00101111 '/'
835c   2f                   ???                ;%00101111 '/'
835d   2f                   ???                ;%00101111 '/'
835e   2f                   ???                ;%00101111 '/'
835f   30 30                bmi l8391
8361   30 30                bmi l8393
8363   30 30                bmi l8395
8365   30 30                bmi l8397
8367   31 31                and ($31),y
8369   31 31                and ($31),y
836b   31 31                and ($31),y
836d   31 31                and ($31),y
836f   32                   ???                ;%00110010 '2'
8370   32                   ???                ;%00110010 '2'
8371   32                   ???                ;%00110010 '2'
8372   32                   ???                ;%00110010 '2'
8373   32                   ???                ;%00110010 '2'
8374   32                   ???                ;%00110010 '2'
8375   32                   ???                ;%00110010 '2'
8376   32                   ???                ;%00110010 '2'
8377   34                   ???                ;%00110100 '4'
8378   34                   ???                ;%00110100 '4'
8379   34                   ???                ;%00110100 '4'
837a   34                   ???                ;%00110100 '4'
837b   34                   ???                ;%00110100 '4'
837c   34                   ???                ;%00110100 '4'
837d   34                   ???                ;%00110100 '4'
837e   34                   ???                ;%00110100 '4'
837f   35 35                and $35,x
8381   35 35                and $35,x
8383   35 35                and $35,x
8385   35 35                and $35,x
8387   36 36                rol $36,x
8389   36 36                rol $36,x
838b   36 36                rol $36,x
838d   36 36                rol $36,x
838f   37                   ???                ;%00110111 '7'
8390   37                   ???                ;%00110111 '7'
8391   37         l8391     ???                ;%00110111 '7'
8392   37                   ???                ;%00110111 '7'
8393   37         l8393     ???                ;%00110111 '7'
8394   37                   ???                ;%00110111 '7'
8395   37         l8395     ???                ;%00110111 '7'
8396   37                   ???                ;%00110111 '7'
8397   39 39 39   l8397     and $3939,y
839a   39 39 39             and $3939,y
839d   39 39 3a             and $3a39,y
83a0   3a                   ???                ;%00111010 ':'
83a1   3a                   ???                ;%00111010 ':'
83a2   3a                   ???                ;%00111010 ':'
83a3   3a                   ???                ;%00111010 ':'
83a4   3a                   ???                ;%00111010 ':'
83a5   3a                   ???                ;%00111010 ':'
83a6   3a                   ???                ;%00111010 ':'
83a7   3b                   ???                ;%00111011 ';'
83a8   3b                   ???                ;%00111011 ';'
83a9   3b                   ???                ;%00111011 ';'
83aa   3b                   ???                ;%00111011 ';'
83ab   3b                   ???                ;%00111011 ';'
83ac   3b                   ???                ;%00111011 ';'
83ad   3b                   ???                ;%00111011 ';'
83ae   3b                   ???                ;%00111011 ';'
83af   3c                   ???                ;%00111100 '<'
83b0   3c                   ???                ;%00111100 '<'
83b1   3c                   ???                ;%00111100 '<'
83b2   3c                   ???                ;%00111100 '<'
83b3   3c                   ???                ;%00111100 '<'
83b4   3c                   ???                ;%00111100 '<'
83b5   3c                   ???                ;%00111100 '<'
83b6   3c                   ???                ;%00111100 '<'
83b7   3e 3e 3e             rol $3e3e,x
83ba   3e 3e 3e             rol $3e3e,x
83bd   3e 3e 28             rol $283e,x
83c0   50 78                bvc $843a
83c2   a0 c8                ldy #$c8
83c4   f0 18                beq l83de
83c6   40                   rti
83c7   68                   pla
83c8   90 b8                bcc l8382
83ca   e0 08      l83ca     cpx #$08
83cc   30 58                bmi $8426
83ce   80                   ???                ;%10000000
83cf   a8                   tay
83d0   d0 f8                bne l83ca
83d2   20 48 70             jsr $7048
83d5   98                   tya
83d6   c0 e8                cpy #$e8
83d8   04                   ???                ;%00000100
83d9   04                   ???                ;%00000100
83da   04                   ???                ;%00000100
83db   04                   ???                ;%00000100
83dc   04                   ???                ;%00000100
83dd   04                   ???                ;%00000100
83de   05 05      l83de     ora $05
83e0   05 05                ora $05
83e2   05 05                ora $05
83e4   06 06                asl $06
83e6   06 06                asl $06
83e8   06 06                asl $06
83ea   06 07                asl $07
83ec   07                   ???                ;%00000111
83ed   07                   ???                ;%00000111
83ee   07                   ???                ;%00000111
83ef   07                   ???                ;%00000111
83f0   07                   ???                ;%00000111
                            .end

;auto-generated symbols and labels
 l8002      $8002
 l8015      $8015
 l8086      $8086
 l8091      $8091
 l8129      $8129
 l8138      $8138
 l8162      $8162
 l8164      $8164
 l8208      $8208
 l8213      $8213
 l8222      $8222
 l8234      $8234
 l8382      $8382
 l8391      $8391
 l8393      $8393
 l8395      $8395
 l8397      $8397
 l821e      $821e
 l80a1      $80a1
 l80ba      $80ba
 l80b0      $80b0
 l811a      $811a
 l81e6      $81e6
 l814c      $814c
 l819e      $819e
 l81a7      $81a7
 l819f      $819f
 l81ce      $81ce
 l81f7      $81f7
 l83de      $83de
 l83ca      $83ca
